*****************************************
Assembler and Date    : version 6.1: (11-09-21)
Program size          : 16272
----------
Asm  file name        : ws2811.asm
List file name        : ws2811.lst
----------
       Hex  file name : ws2811.hex
       COE  file name : ws2811.coe
       MEM  file name : ws2811.mem
Altera Mif  file name : ws2811_alt.mif
Xilinx Mif  file name : ws2811_xil.mif
*****************************************

Labels and Defines:
      APPREG_00: 0100 
      APPREG_10: 0120 
      BASEREGIO: 0000 
            BLK: 0000 
            BLU: ff00 
      BOOT_ADDR: 3f00 
   BUFFERLENGTH: 00c8 
       CHARFILL: 002d 
             CR: 000d 
           CTLD: 0004 
           CTLE: 0005 
           CTLI: 0009 
           CTLL: 000c 
           CTLP: 0010 
           CTLR: 0012 
           CTLS: 0013 
           CTLX: 0003 
           CTLZ: 001a 
           CTL_: 001f 
           DATE: 0069 
         ERL_IX: 0005 
          ER_IX: 0003 
            ESC: 001b 
            ETX: 0003 
             FF: 000c 
          FG_IX: 0001 
       GPREG_00: 0000 
       GPREG_01: 0001 
       GPREG_02: 0002 
       GPREG_03: 0003 
       GPREG_04: 0004 
       GPREG_05: 0005 
       GPREG_06: 0006 
       GPREG_07: 0007 
       GPREG_08: 0008 
       GPREG_09: 0009 
       GPREG_0a: 000a 
       GPREG_0b: 000b 
       GPREG_0c: 000c 
       GPREG_0d: 000d 
       GPREG_0e: 000e 
       GPREG_0f: 000f 
            GRN: 00ff 
           HOUR: 000a 
         IRL_IX: 0004 
            IRW: 0000 
          IR_IX: 0002 
             LF: 000a 
      MAIN_ADDR: 0010 
        MAXCHAN: 000f 
         MINUTE: 0019 
          MONTH: 0004 
           NULL: 0000 
        NUMFILL: 0005 
      PATLENGTH: 000f 
      PCODE_MSK: 0002 
      PCODE_NSK: fffd 
       PWM_HIGH: 0016 
        PWM_LOW: 0008 
     PWM_PERIOD: 001f 
      PWM_RESET: 1e00 
            RED: 00ff 
     RESET_ADDR: 0000 
      RGBLENGTH: 001f 
     RGBLENGTHF: 003f 
     RGBLENGTHH: 000f 
         RXDVLD: 0080 
         RXEMPT: 0002 
          RXERR: 0008 
         RXFULL: 0004 
      SCOPE_MSK: 3000 
      SCOPE_NSK: cfff 
        SECONDS: 0000 
         SIGNED: 8000 
            SPC: 0020 
          SR_IX: 0000 
   STACK_LENGTH: 0040 
    STRIPLENGTH: 0064 
     TARGET_MSK: 0001 
     TARGET_NSK: fffe 
    THEMELENGTH: 000f 
            TP1: 0001 
          TP1_2: 0011 
            TP2: 0010 
      TRIGS_MSK: c000 
      TRIGS_NSK: 3fff 
         TXEMPT: 0020 
         TXFULL: 0040 
        UARTDAT: 0010 
        UARTSTA: 0011 
      USBMD_MSK: 0000 
      USRSW_MSK: 0000 
    VIRTUAL_CHA: 80ff 
            WHT: ffff 
            XRD: 0001 
            XRW: 0003 
            XWR: 0002 
           YEAR: 07e6 
        a_geta1: 0163 
        a_geta2: 0169 
       a_getadr: 015e 
       a_getend: 0191 
        a_getex: 018f 
       a_getmem: 0182 
       a_getval: 0173 
         a_ones: 01c8 
         a_quit: 0265 
       a_regdat: 01b3 
       a_setadd: 0197 
      a_setadd2: 01b2 
           a_w1: 01ec 
           a_w2: 01fd 
           a_w3: 020f 
           a_w4: 0220 
           a_w5: 0233 
           a_w6: 023d 
           a_w7: 0247 
           a_w8: 0251 
           a_w9: 025e 
         a_wend: 025f 
        a_wrout: 01dc 
        a_wrval: 01cd 
       a_wrval1: 01b6 
       a_wrval2: 01bb 
       addvalue: 0a62 
       appset_m: 124e 
        asc2hex: 03dd 
          bitop: 1c46 
        boot_ch: 3f08 
        boot_fh: 3f1a 
         boot_p: 3f03 
        boot_p0: 3f1c 
        boot_p1: 3f1e 
        boot_p2: 3f21 
        boot_p3: 3f22 
        boot_p4: 3f36 
       boot_p4b: 3f42 
        boot_p5: 3f4a 
        boot_p6: 3f4e 
        boot_p7: 3f50 
         boot_r: 3f60 
        boot_r1: 3f64 
        boot_r2: 3f67 
        boot_r3: 3f76 
        boot_r4: 3f80 
      buf_table: 1c9f 
      buff_addr: 1cbf 
     buff_addrx: 1cc0 
       buff_idx: 1cc4 
       buff_inc: 1cc3 
       buff_len: 1cc2 
      buff_mode: 1ccd 
     buff_value: 1cc1 
        c_msk_1: 05a3 
        c_msk_2: 05a9 
        c_msk_3: 05af 
        channel: 1cbb 
        chkstat: 039b 
        chome_m: 0c2a 
       clearr_m: 0bf3 
         clrval: 0157 
          cls_m: 0c24 
       clscreen: 00c6 
      clscreen2: 00d4 
       colorcnt: 1cb7 
     colormskrg: 1cc7 
     colormskwb: 1cc8 
       colorseg: 1cb8 
       colorset: 1cdf 
     colorsetrg: 1cbd 
     colorsetwb: 1cbe 
     computeptr: 0727 
     computeseg: 0712 
     computprt0: 0742 
     computptr1: 0744 
     computptr2: 0747 
     computptr3: 074b 
     computseg0: 071a 
     computseg2: 0722 
     create_msk: 059a 
        cvalue1: 1c40 
        cvalue2: 1c41 
       d_appset: 00db 
        d_areg1: 0102 
        d_areg2: 0110 
        d_aregs: 00fa 
         d_base: 0140 
     d_buff_idx: 0705 
    d_buff_idx2: 0709 
    d_buff_idx3: 0711 
      d_bufmode: 06ec 
     d_bufmode2: 06f0 
      d_channel: 05e3 
     d_channel2: 05e7 
     d_channel3: 05ed 
     d_colorall: 05c9 
      d_colorin: 05ee 
     d_colorin2: 05f2 
     d_colorin3: 05fd 
       d_colors: 05b4 
      d_colors2: 05b8 
      d_colorsb: 05c7 
        d_debug: 00e7 
      d_dimstep: 058f 
     d_dimstep2: 0593 
     d_dimstep3: 0599 
        d_enbbg: 0579 
        d_enbfg: 0574 
      d_enbfgbg: 057d 
     d_enbloop1: 05dd 
       d_enbpat: 061a 
      d_enbpat0: 0630 
      d_enbpat1: 062d 
      d_enbpat2: 061f 
       d_enbthe: 05fe 
      d_enbthe2: 0603 
      d_fastpwm: 04ed 
         d_help: 00ee 
        d_helpa: 00f4 
         d_mema: 0113 
         d_memb: 012d 
      d_membyte: 0137 
        d_memof: 0126 
        d_memon: 0120 
      d_memword: 0139 
         d_menu: 00d5 
      d_nothing: 014f 
      d_pagenum: 06f7 
     d_pagenum2: 06fb 
     d_pagenum3: 0704 
        d_pcode: 0528 
       d_pixels: 054b 
     d_pixelson: 055d 
       d_prgver: 009f 
      d_prgver2: 00ac 
     d_readmode: 0566 
       d_rtcval: 00ad 
      d_rtcval2: 00c1 
     d_runthem0: 060f 
       d_scpsrc: 0495 
      d_slowpwm: 04fc 
       d_sysset: 00e1 
       d_target: 050e 
      d_target2: 0518 
       d_timer1: 0580 
       d_trgsrc: 04aa 
       d_txpage: 014b 
        dbugptr: 1caf 
        debug_m: 0e91 
      delimeter: 1c47 
         dimcnt: 1c53 
     dimcounter: 0a4d 
         dimflg: 1c54 
       dimsteps: 1cc6 
       disdigit: 0410 
        dishex2: 0430 
        dishex4: 0422 
        dishexs: 0417 
      disscreen: 00c4 
         divend: 0a76 
       division: 0a6e 
       divstart: 0a6f 
       e_wrval1: 01ba 
       e_wrval2: 01cc 
       echo_off: 009a 
        echo_on: 0095 
      echo_save: 009c 
       echomode: 1c4a 
      enbscreen: 00c2 
       end_boot: 3f55 
       end_loop: 3f5b 
          exe_v: 2a67 
         h2btab: 0c14 
         help_a: 14cb 
         help_m: 1824 
           hex1: 03aa 
        hex1val: 1c3e 
           hex2: 03b8 
        hex2asc: 03a1 
        hex2val: 1c3f 
      hexval4_m: 0bca 
        hw_irq1: 0aa3 
        hw_irq2: 0aac 
      hw_irq2_1: 0ab1 
        hw_irq3: 0ab3 
      hw_irq3_1: 0abd 
      hw_irq3_2: 0abe 
        hw_irq4: 0abf 
      hw_irq4_1: 0b08 
      hw_irq4_2: 0b06 
      hw_irq4_3: 0b04 
      hw_irq4_4: 0b01 
      hw_irq4_5: 0aff 
      hw_irq4_6: 0aeb 
       initloop: 004f 
        inpaddr: 1c43 
        inpchar: 1c42 
      intensity: 1cbc 
  intensity_tab: 1c33 
         irq1_v: 0002 
         irq2_v: 0004 
         irq3_v: 0006 
         irq4_v: 0008 
        irq_dis: 0548 
        irq_enb: 0545 
        irq_set: 053a 
        irqmask: 1c52 
         keepit: 0a69 
         kpst00: 0c2f 
         kpst10: 0c5f 
         kpst20: 0cbb 
         kpst30: 0cc7 
         kpst40: 0d27 
           main: 0076 
          main2: 0081 
          main3: 008c 
         memacc: 1cca 
      membyte_m: 0ba2 
        memdum4: 02ba 
       memdumb1: 0299 
       memdumb2: 029b 
        memdump: 0270 
       memdump0: 0272 
       memdumw1: 027f 
       memdumw2: 0281 
        memfill: 02e4 
       memfill2: 02ff 
       memfill3: 0306 
       memfill4: 030f 
         memlen: 02d7 
        memnext: 0269 
         memode: 1cc9 
        memof_m: 0b72 
        memon_m: 0b8a 
          memop: 1ccb 
         memptr: 1c3c 
     memptrlast: 1c3d 
      memword_m: 0bb6 
           menu: 0deb 
        month28: 0a88 
        month29: 0a84 
        month30: 0a98 
        month31: 0a94 
       monthchk: 0a77 
      monthchk0: 0a8c 
      monthchk1: 0a9c 
    monthchkend: 0aa2 
       monthtab: 0b0c 
      no_out_ch: 03e5 
          noneg: 03f2 
      numpixels: 1c9e 
        outdata: 1c44 
        p_blink: 0936 
         p_dimm: 096e 
         p_jump: 0336 
         p_rest: 033c 
         p_save: 0332 
         p_walk: 0946 
      pat_table: 1c23 
       pattern0: 0932 
     pattern1_1: 0943 
     pattern1_2: 0941 
     pattern1_3: 0945 
     pattern2_0: 0966 
     pattern2_1: 0969 
     pattern2_2: 096b 
     pattern3_2: 0977 
       pattern4: 0990 
       pattern5: 0990 
       pattern6: 0990 
       pattern7: 0990 
       pattern8: 0990 
       pattern9: 0990 
       patterna: 0990 
       patternb: 0990 
       patternc: 0990 
       patternd: 0990 
       patterne: 0990 
       patternf: 0990 
       pbuffer1: 1da7 
      pbuffer10: 24af 
      pbuffer11: 2577 
      pbuffer12: 263f 
      pbuffer13: 2707 
      pbuffer14: 27cf 
      pbuffer15: 2897 
      pbuffer16: 295f 
       pbuffer2: 1e6f 
       pbuffer3: 1f37 
       pbuffer4: 1fff 
       pbuffer5: 20c7 
       pbuffer6: 218f 
       pbuffer7: 2257 
       pbuffer8: 231f 
       pbuffer9: 23e7 
      pcounter1: 1c4f 
       pixelson: 1cc5 
          pjump: 1cd6 
         ploop3: 097f 
        poffset: 1ccc 
       prog_cnt: 3f8f 
       prog_lng: 3f8e 
         prompt: 0c0f 
       promptcr: 0c12 
       promptlf: 0c10 
       promptx2: 0c0d 
       pselect1: 1c50 
      pselect1e: 1c51 
     rd_buffbnk: 09e9 
    rd_buffbnk3: 09ef 
      rd_buffdn: 09cc 
     rd_buffdn1: 09d2 
     rd_buffend: 0a03 
      rd_buffer: 0992 
     rd_buffer0: 0996 
     rd_buffer2: 099f 
     rd_buffer3: 09a0 
     rd_bufferx: 09f5 
      rd_buffud: 09d5 
     rd_buffud0: 09e0 
     rd_buffud1: 09dd 
     rd_buffud2: 09e6 
      rd_buffup: 09c4 
     rd_buffup1: 09c9 
     rd_buffwc1: 09f3 
        rd_hex1: 03e0 
        rd_hex2: 0406 
        rd_hex9: 0409 
        rd_hexa: 040f 
         rdchar: 0440 
         rdmemb: 02a2 
         rdmemw: 0288 
      read_mode: 1cd5 
       ready2go: 1cba 
        refresh: 05d7 
         regptr: 1c49 
        reset_v: 0000 
     resetcolor: 06d2 
    resetcolor2: 06e8 
       residual: 1cb9 
     restorebuf: 076e 
    restorebuf1: 0777 
       return_m: 0b41 
         rgbtab: 1c57 
        rgbtab8: 1c67 
      rgbtab_bg: 1c77 
     rgbtab_bg8: 1c87 
        rtcdump: 00b2 
        s_bitop: 0150 
       s_bitop1: 0155 
        savebuf: 0750 
       savebuf1: 0759 
       savebuf2: 075c 
      savecolor: 06bb 
        scolor1: 06c5 
        scolor2: 06cf 
        scolor3: 06d1 
          sesma: 0313 
        setaper: 04cc 
       setapul0: 04d7 
       setapul1: 04e2 
        setarst: 04c1 
       setcolor: 06af 
      setcolor0: 0639 
      setcolor1: 0643 
      setcolor2: 064f 
      setcolor3: 065b 
      setcolor4: 0669 
      setcolor5: 0675 
      setcolor6: 0681 
      setcolor7: 068f 
     setcolorbg: 06ab 
        setdate: 0461 
    setdefcolor: 069b 
        sethour: 046c 
       setloop1: 06b1 
         setmin: 047c 
       setmonth: 0456 
         setsec: 048a 
          setup: 0010 
        setyear: 044b 
          ssm_1: 0317 
          ssm_2: 0324 
        ssm_end: 0340 
       ssm_exec: 0345 
        ssm_lst: 1c56 
        ssm_pst: 1c55 
          stack: 2a27 
       subvalue: 0a5b 
        sw_irq1: 0b0b 
       sysset_m: 107a 
      t_argflag: 0844 
    t_colorful1: 0884 
    t_colorful2: 08a4 
    t_colorful3: 08c4 
      t_engflag: 0854 
    t_halloween: 0874 
      t_ireflag: 0828 
      t_itaflag: 0864 
    t_liverpool: 0906 
        t_nycfc: 090e 
 t_saintpatrick: 08e4 
      t_usaflag: 0818 
         t_xmas: 07d4 
        t_xmas2: 07fb 
          temp0: 1c48 
      the_table: 1c13 
         theme0: 078c 
       theme0_0: 0794 
       theme0_1: 07ae 
       theme0_3: 07bf 
       theme0_4: 07d3 
       theme1_1: 07f6 
       theme2_1: 080f 
         themef: 0930 
          tjump: 1cce 
         tloop1: 0805 
       tloop1_1: 07e5 
       tloop1_2: 07e9 
       tmr1date: 1cd1 
       tmr1hour: 1cd2 
        tmr1min: 1cd3 
      tmr1month: 1cd0 
       tmr1msec: 1c4b 
        tmr1sec: 1cd4 
      tmr1value: 1c4c 
       tmr1year: 1ccf 
         tohex2: 03bd 
        tohex21: 03ca 
        tohex22: 03d8 
       treset_m: 0be0 
        tx_char: 034d 
        tx_ends: 036c 
        tx_fill: 0358 
        tx_line: 0346 
       tx_line2: 0348 
         tx_nxt: 0364 
        tx_page: 036d 
       tx_page2: 036f 
        tx_prmt: 038d 
      tx_prmtcr: 037f 
      tx_prmtlf: 0386 
      tx_prmtx2: 0394 
       uartstat: 1c45 
         varchk: 1c97 
        vardum1: 02c7 
        vardum2: 02c9 
        vardump: 02bd 
       vardump0: 02bf 
      version_m: 0b18 
       walk_cnt: 1c4d 
        walk_on: 1c4e 
          wloop: 0a22 
         wloop1: 0a30 
        wloop2b: 0a47 
        wloop2f: 0a3c 
       wpattern: 0a04 
      wpattern4: 0a36 
     wpattern_0: 0a1c 
     wpattern_2: 0a4c 
     wpattern_3: 0a29 
   wpattern_chk: 0a13 
         wpst00: 0dab 
         wpst01: 0db7 
         wpst02: 0dd3 
         wpst03: 0ddf 
     zboot_addr: 3f00 
        zbugtab: 1c97 
      zend_code: 1c3b 
       zend_ram: 2a69 
       zregdbug: 1cd7 
         zstack: 2a27 
*****************************************
Opcode listing.

0000   0039   reset_v: jmp setup ; 
0001   0010
0002   0039   irq1_v: jmp hw_irq1 ; 
0003   0aa3
0004   0039   irq2_v: jmp hw_irq2 ; 
0005   0aac
0006   0039   irq3_v: jmp hw_irq3 ; 
0007   0ab3
0008   0039   irq4_v: jmp hw_irq4 ; 
0009   0abf
0010   0046   setup: cli ;
0011   0a2e   ldpv pA,UARTDAT ; 
0012   0010
0013   0b2e   ldpv pB,UARTSTA ;
0014   0011
0015   0f2e   ldpv pF,stack ; 
0016   2a27
0017   072e   ldpv p7,dbugptr ; 
0018   1caf
0019   0d2e   ldpv pD,zregdbug ; 
001a   1cd7
001b   0121   ldrv r1,kpst00 ; 
001c   0c2f
001d   1028   str r1,ssm_pst ; 
001e   1c55
001f   1028   str r1,ssm_lst ; 
0020   1c56
0021   0120   ldr r1,numpixels ;
0022   1c9e
0023   1034   outp r1,GPREG_00 ;
0024   0000
0025   0121   ldrv r1,PWM_RESET ;
0026   1e00
0027   1034   outp r1,GPREG_01 ;
0028   0001
0029   0121   ldrv r1,zend_code ;
002a   1c3b
002b   1034   outp r1,GPREG_02 ;
002c   0002
002d   0121   ldrv r1,zend_ram ;
002e   2a69
002f   1034   outp r1,GPREG_03 ;
0030   0003
0031   0121   ldrv r1,PWM_PERIOD ;
0032   001f
0033   1034   outp r1,GPREG_04 ;
0034   0004
0035   0121   ldrv r1,PWM_LOW ;
0036   0008
0037   1034   outp r1,GPREG_05 ;
0038   0005
0039   0121   ldrv r1,PWM_HIGH ;
003a   0016
003b   1034   outp r1,GPREG_06 ;
003c   0006
003d   0121   ldrv r1,'h0002 ;
003e   0002
003f   1034   outp r1,GPREG_07 ;
0040   0007
0041   0121   ldrv r1,'h7840 ;
0042   7840
0043   1034   outp r1,GPREG_08 ;
0044   0008
0045   0121   ldrv r1,'h017d ;
0046   017d
0047   1034   outp r1,GPREG_09 ;
0048   0009
0049   001f   ldcv c0,RGBLENGTHF ; 
004a   003f
004b   012e   ldpv p1,rgbtab ; 
004c   1c57
004d   022e   ldpv p2,APPREG_00 ; 
004e   0100
004f   1124   initloop: ldrpi r1,p1 ;
0050   1235   outpp r1,p2 ;
0051   0230   incp p2 ;
0052   0038   dcjnz c0,initloop ;
0053   004f
0054   003e   uflag f0 ; 
0055   013e   uflag f1 ; 
0056   023e   uflag f2 ; 
0057   033e   uflag f3 ; 
0058   043e   uflag f4 ; 
0059   053e   uflag f5 ; 
005a   063e   uflag f6 ; 
005b   073e   uflag f7 ; 
005c   083e   uflag f8 ; 
005d   093e   uflag f9 ; 
005e   0a3e   uflag fA ; 
005f   0e3e   uflag fE ; 
0060   003f   uport f0 ; 
0061   813f   uport t1 ; 
0062   023f   uport f2 ; 
0063   033f   uport f3 ; 
0064   043f   uport f4 ; 
0065   053f   uport f5 ; 
0066   063f   uport f6 ; 
0067   073f   uport f7 ; 
0068   083f   uport f8 ; 
0069   093f   uport f9 ; 
006a   660e   xor r6,r6 ; 
006b   6028   str r6,colorcnt ;
006c   1cb7
006d   6e1a   mvrp r6,pE ; 
006e   0e21   ldrv rE,20 ; 
006f   0014
0070   003b   jsr tx_prmt ; 
0071   038d
0072   003b   jsr d_target ; 
0073   050e
0074   003b   jsr irq_enb ;
0075   0545
0076   833f   main: uport t3 ; 
0077   b133   inpp r1,pB ; 
0078   033f   uport f3 ;
0079   0141   bitv r1,RXDVLD ; 
007a   0080
007b   1037   bra z,main2 ; 
007c   0005
007d   003b   jsr rdchar ;
007e   0440
007f   003b   jsr sesma ; 
0080   0313
0081   0839   main2: jmp f8,main3 ; 
0082   008c
0083   083e   uflag f8 ; 
0084   0339   jmp f3,main ; 
0085   0076
0086   0121   ldrv r1,main ; 
0087   0076
0088   1f2b   push r1,pF ; 
0089   032d   ldp p3,pjump ; 
008a   1cd6
008b   033a   jmpp p3 ; 
008c   0939   main3: jmp f9,main ; 
008d   0076
008e   093e   uflag f9 ; 
008f   0e30   incp pE ; 
0090   0a39   jmp fA,main ;
0091   0076
0092   0a3e   uflag fA ; 
0093   0039   jmp main ;
0094   0076
0095   873e   echo_on: uflag t7 ;
0096   0121   ldrv r1,1 ;
0097   0001
0098   0037   bra echo_save ;
0099   0003
009a   073e   echo_off: uflag f7 ;
009b   110e   xor r1,r1 ;
009c   1028   echo_save: str r1,echomode ;
009d   1c4a
009e   003c   rts ; 
009f   873e   d_prgver: uflag t7 ;
00a0   0c2e   ldpv pC,version_m ;
00a1   0b18
00a2   003b   jsr tx_line ;
00a3   0346
00a4   003b   jsr tx_prmtlf ;
00a5   0386
00a6   0120   ldr r1,echomode ;
00a7   1c4a
00a8   110c   or r1,r1 ;
00a9   9037   bra nz,d_prgver2 ;
00aa   0002
00ab   073e   uflag f7 ;
00ac   003c   d_prgver2: rts ;
00ad   873e   d_rtcval: uflag t7 ;
00ae   012e   ldpv p1,tmr1year ;
00af   1ccf
00b0   011f   ldcv c1,5 ; 
00b1   0005
00b2   1224   rtcdump: ldrpi r2,p1 ;
00b3   003b   jsr dishex4 ; 
00b4   0422
00b5   0138   dcjnz c1,rtcdump ;
00b6   00b2
00b7   0c2e   ldpv pC,promptlf ; 
00b8   0c10
00b9   003b   jsr tx_line ; 
00ba   0346
00bb   0120   ldr r1,echomode ;
00bc   1c4a
00bd   110c   or r1,r1 ;
00be   9037   bra nz,d_rtcval2 ;
00bf   0002
00c0   073e   uflag f7 ;
00c1   003c   d_rtcval2: rts ;
00c2   823e   enbscreen: uflag t2 ;
00c3   003c   rts ; 
00c4   023e   disscreen: uflag f2 ;
00c5   003c   rts ; 
00c6   0239   clscreen: jmp f2,clscreen2 ;
00c7   00d4
00c8   0c2e   ldpv pC,cls_m ; 
00c9   0c24
00ca   003b   jsr tx_line ; 
00cb   0346
00cc   003b   jsr tx_prmtx2 ;
00cd   0394
00ce   0c2e   ldpv pC,chome_m ; 
00cf   0c2a
00d0   003b   jsr tx_line ; 
00d1   0346
00d2   003b   jsr tx_prmtx2 ;
00d3   0394
00d4   003c   clscreen2: rts ;
00d5   003b   d_menu: jsr clscreen ; 
00d6   00c6
00d7   0c2e   ldpv pC,menu ; 
00d8   0deb
00d9   0039   jmp d_txpage ;
00da   014b
00db   003b   d_appset: jsr clscreen ; 
00dc   00c6
00dd   0c2e   ldpv pC,appset_m ; 
00de   124e
00df   0039   jmp d_txpage ;
00e0   014b
00e1   003b   d_sysset: jsr clscreen ; 
00e2   00c6
00e3   0c2e   ldpv pC,sysset_m ; 
00e4   107a
00e5   0039   jmp d_txpage ;
00e6   014b
00e7   873e   d_debug: uflag t7 ; 
00e8   003b   jsr clscreen ; 
00e9   00c6
00ea   0c2e   ldpv pC,debug_m ; 
00eb   0e91
00ec   0039   jmp d_txpage ;
00ed   014b
00ee   003b   d_help: jsr clscreen ; 
00ef   00c6
00f0   0c2e   ldpv pC,help_m ; 
00f1   1824
00f2   0039   jmp d_txpage ;
00f3   014b
00f4   003b   d_helpa: jsr clscreen ; 
00f5   00c6
00f6   0c2e   ldpv pC,help_a ; 
00f7   14cb
00f8   0039   jmp d_txpage ;
00f9   014b
00fa   003b   d_aregs: jsr clscreen ; 
00fb   00c6
00fc   873e   uflag t7 ;
00fd   0120   ldr r1,regptr ;
00fe   1c49
00ff   181a   mvrp r1,p8 ;
0100   011f   ldcv c1,15 ;
0101   000f
0102   8233   d_areg1: inpp r2,p8 ;
0103   003b   jsr dishex4 ;
0104   0422
0105   003b   jsr tx_prmt ;
0106   038d
0107   0830   incp p8 ;
0108   0138   dcjnz c1,d_areg1 ;
0109   0102
010a   0120   ldr r1,echomode ;
010b   1c4a
010c   110c   or r1,r1 ;
010d   9037   bra nz,d_areg2 ;
010e   0002
010f   073e   uflag f7 ;
0110   003b   d_areg2: jsr tx_prmt ;
0111   038d
0112   003c   rts ; 
0113   0120   d_mema: ldr r1,memacc ;
0114   1cca
0115   010f   xorv r1,1 ;
0116   0001
0117   9037   bra nz,d_memon ;
0118   0008
0119   220e   xor r2,r2 ;
011a   2028   str r2,memop ;
011b   1ccb
011c   0c2e   ldpv pC,memof_m ; 
011d   0b72
011e   0037   bra d_memof ;
011f   0007
0120   0221   d_memon: ldrv r2,3 ;
0121   0003
0122   2028   str r2,memop ;
0123   1ccb
0124   0c2e   ldpv pC,memon_m ;
0125   0b8a
0126   1028   d_memof: str r1,memacc ;
0127   1cca
0128   003b   jsr tx_line ;
0129   0346
012a   003b   jsr tx_prmt ;
012b   038d
012c   003c   rts ; 
012d   0120   d_memb: ldr r1,memode ;
012e   1cc9
012f   010f   xorv r1,1 ;
0130   0001
0131   9037   bra nz,d_membyte ;
0132   0005
0133   0c2e   ldpv pC,memword_m ; 
0134   0bb6
0135   0037   bra d_memword ;
0136   0003
0137   0c2e   d_membyte: ldpv pC,membyte_m ;
0138   0ba2
0139   1028   d_memword: str r1,memode ;
013a   1cc9
013b   003b   jsr tx_line ;
013c   0346
013d   003b   jsr tx_prmt ;
013e   038d
013f   003c   ;     
0140   0c2e   d_base: ldpv pC,hexval4_m ; 
0141   0bca
0142   003b   jsr tx_line ;
0143   0346
0144   003b   jsr asc2hex ;
0145   03dd
0146   2028   str r2,regptr ;
0147   1c49
0148   003b   jsr tx_prmtx2 ;
0149   0394
014a   003c   rts ; 
014b   003b   d_txpage: jsr tx_page ;
014c   036d
014d   003b   jsr tx_prmtcr ;
014e   037f
014f   003c   d_nothing: rts ;
0150   0120   s_bitop: ldr r1,inpchar ; 
0151   1c42
0152   0739   jmp f7,s_bitop1 ;
0153   0155
0154   1a35   outpp r1,pA ; 
0155   1028   s_bitop1: str r1,bitop ;
0156   1c46
0157   0121   clrval: ldrv r1,'h3030 ; 
0158   3030
0159   1028   str r1,cvalue1 ;
015a   1c40
015b   1028   str r1,cvalue2 ;
015c   1c41
015d   003c   rts ; 
015e   0120   a_getadr: ldr r1,inpchar ;
015f   1c42
0160   0739   jmp f7,a_geta1 ;
0161   0163
0162   1a35   outpp r1,pA ; 
0163   0220   a_geta1: ldr r2,cvalue1 ;
0164   1c40
0165   0320   ldr r3,cvalue2 ;
0166   1c41
0167   011f   ldcv c1,7 ;
0168   0007
0169   0215   a_geta2: shl l,r2 ;
016a   1315   shl k,r3 ;
016b   0138   dcjnz c1,a_geta2 ;
016c   0169
016d   3028   str r3,cvalue2 ;
016e   1c41
016f   120c   or r2,r1 ;
0170   2028   str r2,cvalue1 ;
0171   1c40
0172   003c   rts ; 
0173   003b   a_getval: jsr a_setadd ;
0174   0197
0175   003b   jsr tx_prmt ;
0176   038d
0177   012d   ldp p1,inpaddr ;
0178   1c43
0179   0120   ldr r1,bitop ;
017a   1c46
017b   1113   cmprv r1,"m" ;
017c   006d
017d   1037   bra z,a_getmem ;
017e   0004
017f   1233   inpp r2,p1 ;
0180   0037   bra a_getend ;
0181   0010
0182   102f   a_getmem: stp p1,memptr ;
0183   1c3c
0184   102f   stp p1,memptrlast ;
0185   1c3d
0186   0420   ldr r4,memop ;
0187   1ccb
0188   040b   andv r4,3 ;
0189   0003
018a   9037   bra nz,a_getex ;
018b   0004
018c   1222   ldrp r2,p1 ;
018d   0037   bra a_getend ;
018e   0003
018f   1026   a_getex: ldmam m1 ;
0190   1222   ldrp r2,p1 ;
0191   0026   a_getend: ldmam m0 ;
0192   003b   jsr dishex4 ;
0193   0422
0194   003b   jsr tx_prmt ;
0195   038d
0196   003c   rts ; 
0197   0120   a_setadd: ldr r1,cvalue1 ;
0198   1c40
0199   003b   jsr tohex2 ;
019a   03bd
019b   2319   mvrr r2,r3 ;
019c   0120   ldr r1,cvalue2 ;
019d   1c41
019e   003b   jsr tohex2 ;
019f   03bd
01a0   0217   shl4 r2 ;
01a1   0217   shl4 r2 ;
01a2   320c   or r2,r3 ;
01a3   2028   str r2,inpaddr ;
01a4   1c43
01a5   0121   ldrv r1,'h3030 ;
01a6   3030
01a7   1028   str r1,cvalue1 ;
01a8   1c40
01a9   1028   str r1,cvalue2 ;
01aa   1c41
01ab   0120   ldr r1,inpchar ; 
01ac   1c42
01ad   1028   str r1,delimeter ;
01ae   1c47
01af   0739   jmp f7,a_setadd2;
01b0   01b2
01b1   1a35   outpp r1,pA ;
01b2   003c   a_setadd2: rts ;
01b3   003b   a_regdat: jsr a_getadr ;
01b4   015e
01b5   003c   rts ; 
01b6   003b   a_wrval1: jsr a_wrval ;
01b7   01cd
01b8   003b   jsr a_wrout ;
01b9   01dc
01ba   003c   e_wrval1: rts ;
01bb   003b   a_wrval2: jsr a_wrval ;
01bc   01cd
01bd   0220   ldr r2,outdata ;
01be   1c44
01bf   2209   not r2 ;
01c0   0320   ldr r3,delimeter ;
01c1   1c47
01c2   3313   cmprv r3,"-" ;
01c3   002d
01c4   9037   bra ne,a_ones ;
01c5   0003
01c6   0203   addv r2,1 ;
01c7   0001
01c8   2028   a_ones: str r2,outdata ;
01c9   1c44
01ca   003b   jsr a_wrout ;
01cb   01dc
01cc   003c   e_wrval2: rts ;
01cd   0120   a_wrval: ldr r1,cvalue1 ;
01ce   1c40
01cf   003b   jsr tohex2 ;
01d0   03bd
01d1   2319   mvrr r2,r3 ; 
01d2   0120   ldr r1,cvalue2 ;
01d3   1c41
01d4   003b   jsr tohex2 ;
01d5   03bd
01d6   0217   shl4 r2 ;
01d7   0217   shl4 r2 ;
01d8   320c   or r2,r3 ; 
01d9   2028   str r2,outdata ;
01da   1c44
01db   003c   rts ; 
01dc   0120   a_wrout: ldr r1,outdata ;
01dd   1c44
01de   0220   ldr r2,inpaddr ;
01df   1c43
01e0   0320   ldr r3,bitop ;
01e1   1c46
01e2   0420   ldr r4,memop ;
01e3   1ccb
01e4   3313   cmprv r3,"w" ; 
01e5   0077
01e6   9037   bra ne,a_w1 ;
01e7   0005
01e8   211a   mvrp r2,p1 ;
01e9   1135   outpp r1,p1 ;
01ea   0037   bra a_wend ;
01eb   0074
01ec   3313   a_w1: cmprv r3,"s" ; 
01ed   0073
01ee   9037   bra ne,a_w2 ;
01ef   000e
01f0   211a   mvrp r2,p1 ;
01f1   032e   ldpv p3,h2btab ;
01f2   0c14
01f3   0120   ldr r1,outdata ;
01f4   1c44
01f5   3104   addrp r1,p3 ;
01f6   131a   mvrp r1,p3 ;
01f7   3122   ldrp r1,p3 ; 
01f8   1233   inpp r2,p1 ; 
01f9   120c   or r2,r1 ;
01fa   2135   outpp r2,p1 ;
01fb   0037   bra a_wend ;
01fc   0063
01fd   3313   a_w2: cmprv r3,"c" ; 
01fe   0063
01ff   9037   bra ne,a_w3 ;
0200   000f
0201   211a   mvrp r2,p1 ;
0202   032e   ldpv p3,h2btab ;
0203   0c14
0204   0120   ldr r1,outdata ;
0205   1c44
0206   3104   addrp r1,p3 ;
0207   131a   mvrp r1,p3 ;
0208   3122   ldrp r1,p3 ; 
0209   1109   not r1,r1 ; 
020a   1233   inpp r2,p1 ; 
020b   120a   and r2,r1 ;
020c   2135   outpp r2,p1 ;
020d   0037   bra a_wend ;
020e   0051
020f   3313   a_w3: cmprv r3,"t" ; 
0210   0074
0211   9037   bra ne,a_w4 ;
0212   000e
0213   211a   mvrp r2,p1 ;
0214   032e   ldpv p3,h2btab ;
0215   0c14
0216   0120   ldr r1,outdata ;
0217   1c44
0218   3104   addrp r1,p3 ;
0219   131a   mvrp r1,p3 ;
021a   3122   ldrp r1,p3 ; 
021b   1233   inpp r2,p1 ; 
021c   120e   xor r2,r1 ;
021d   2135   outpp r2,p1 ;
021e   0037   bra a_wend ;
021f   0040
0220   3313   a_w4: cmprv r3,"i" ; 
0221   0069
0222   9037   bra ne,a_w5 ;
0223   0010
0224   211a   mvrp r2,p1 ;
0225   032e   ldpv p3,h2btab ;
0226   0c14
0227   0120   ldr r1,outdata ;
0228   1c44
0229   3104   addrp r1,p3 ;
022a   131a   mvrp r1,p3 ;
022b   3122   ldrp r1,p3 ; 
022c   1233   inpp r2,p1 ; 
022d   120e   xor r2,r1 ;
022e   2135   outpp r2,p1 ; 
022f   120e   xor r2,r1 ;
0230   2135   outpp r2,p1 ;
0231   0037   bra a_wend ;
0232   002d
0233   3313   a_w5: cmprv r3,"a" ; 
0234   0061
0235   9037   bra ne,a_w6 ;
0236   0007
0237   211a   mvrp r2,p1 ;
0238   1333   inpp r3,p1 ; 
0239   310a   and r1,r3 ;
023a   1135   outpp r1,p1 ;
023b   0037   bra a_wend ;
023c   0023
023d   3313   a_w6: cmprv r3,"o" ; 
023e   006f
023f   9037   bra ne,a_w7 ;
0240   0007
0241   211a   mvrp r2,p1 ;
0242   1333   inpp r3,p1 ; 
0243   310c   or r1,r3 ;
0244   1135   outpp r1,p1 ;
0245   0037   bra a_wend ;
0246   0019
0247   3313   a_w7: cmprv r3,"e" ; 
0248   0065
0249   9037   bra ne,a_w8 ;
024a   0007
024b   211a   mvrp r2,p1 ;
024c   1333   inpp r3,p1 ; 
024d   310e   xor r1,r3 ;
024e   1135   outpp r1,p1 ;
024f   0037   bra a_wend ;
0250   000f
0251   3313   a_w8: cmprv r3,"m" ; 
0252   006d
0253   9037   bra ne,a_wend ;
0254   000b
0255   012d   ldp p1,inpaddr ;
0256   1c43
0257   0320   ldr r3,memop ;
0258   1ccb
0259   030b   andv r3,3 ;
025a   0003
025b   1037   bra z,a_w9 ;
025c   0002
025d   2026   ldmam m2 ; 
025e   1129   a_w9: strp r1,p1 ;
025f   0026   a_wend: ldmam m0 ; 
0260   003b   jsr tx_prmt ;
0261   038d
0262   003b   jsr tx_prmt ;
0263   038d
0264   003c   rts ; 
0265   0000   a_quit: nop ;
0266   003b   jsr tx_prmt ;
0267   038d
0268   003c   rts ; 
0269   853e   memnext: uflag t5 ; 
026a   012d   ldp p1,memptr ;
026b   1c3c
026c   102f   stp p1,memptrlast ;
026d   1c3d
026e   0039   jmp memdump0 ;
026f   0272
0270   012d   memdump: ldp p1,memptrlast ;
0271   1c3d
0272   121b   memdump0: mvpr p1,r2 ; 
0273   003b   jsr dishex4 ; 
0274   0422
0275   003b   jsr tx_prmt ; 
0276   038d
0277   0026   ldmam m0 ; 
0278   021f   ldcv c2,15 ; 
0279   000f
027a   0120   ldr r1,memode ;
027b   1cc9
027c   110c   or r1,r1 ;
027d   9037   bra nz,memdumb1 ;
027e   001b
027f   011f   memdumw1: ldcv c1,7 ; 
0280   0007
0281   0120   memdumw2: ldr r1,memop ;
0282   1ccb
0283   010b   andv r1,3 ;
0284   0003
0285   1037   bra z,rdmemw ;
0286   0002
0287   1026   ldmam m1 ;
0288   1224   rdmemw: ldrpi r2,p1 ;
0289   0026   ldmam m0 ; 
028a   003b   jsr dishex4 ; 
028b   0422
028c   0138   dcjnz c1,memdumw2 ;
028d   0281
028e   003b   jsr tx_prmt ;
028f   038d
0290   0238   dcjnz c2,memdumw1 ;
0291   027f
0292   0539   jmp f5,memdum4 ;
0293   02ba
0294   102f   stp p1,memptr ;
0295   1c3c
0296   053e   uflag f5 ;
0297   0039   jmp memdum4 ;
0298   02ba
0299   011f   memdumb1: ldcv c1,7 ; 
029a   0007
029b   0120   memdumb2: ldr r1,memop ;
029c   1ccb
029d   010b   andv r1,3 ;
029e   0003
029f   1037   bra z,rdmemb ;
02a0   0002
02a1   1026   ldmam m1 ;
02a2   330e   rdmemb: xor r3,r3 ;
02a3   1224   ldrpi r2,p1 ; 
02a4   230c   or r3,r2 ;
02a5   1224   ldrpi r2,p1 ;
02a6   0217   shl4 r2 ;
02a7   0217   shl4 r2 ;
02a8   230c   or r3,r2 ;
02a9   321d   swap r3,r2 ;
02aa   0026   ldmam m0 ; 
02ab   003b   jsr dishex4 ; 
02ac   0422
02ad   0138   dcjnz c1,memdumb2 ;
02ae   029b
02af   003b   jsr tx_prmt ;
02b0   038d
02b1   0238   dcjnz c2,memdumb1 ;
02b2   0299
02b3   0539   jmp f5,memdum4 ;
02b4   02ba
02b5   102f   stp p1,memptr ;
02b6   1c3c
02b7   053e   uflag f5 ;
02b8   0039   jmp memdum4 ;
02b9   02ba
02ba   003b   memdum4: jsr tx_prmt ;
02bb   038d
02bc   003c   rts ; 
02bd   012e   vardump: ldpv p1,varchk ;
02be   1c97
02bf   121b   vardump0: mvpr p1,r2 ; 
02c0   003b   jsr dishex4 ; 
02c1   0422
02c2   003b   jsr tx_prmt ; 
02c3   038d
02c4   0026   ldmam m0 ; 
02c5   021f   ldcv c2,16 ; 
02c6   0010
02c7   011f   vardum1: ldcv c1,7 ; 
02c8   0007
02c9   1224   vardum2: ldrpi r2,p1 ;
02ca   003b   jsr dishex4 ; 
02cb   0422
02cc   0138   dcjnz c1,vardum2 ;
02cd   02c9
02ce   003b   jsr tx_prmt ;
02cf   038d
02d0   0238   dcjnz c2,vardum1 ;
02d1   02c7
02d2   102f   stp p1,memptr ;
02d3   1c3c
02d4   003b   jsr tx_prmt ;
02d5   038d
02d6   003c   rts ; 
02d7   0c2e   memlen: ldpv pC,hexval4_m ; 
02d8   0bca
02d9   003b   jsr tx_line ;
02da   0346
02db   003b   jsr asc2hex ; 
02dc   03dd
02dd   3028   str r3,buff_len ; 
02de   1cc2
02df   2028   str r2,buff_inc ; 
02e0   1cc3
02e1   003b   jsr tx_prmt ;
02e2   038d
02e3   003c   rts ; 
02e4   0c2e   memfill: ldpv pC,hexval4_m ; 
02e5   0bca
02e6   003b   jsr tx_line ;
02e7   0346
02e8   003b   jsr asc2hex ; 
02e9   03dd
02ea   3028   str r3,buff_addr ; 
02eb   1cbf
02ec   2028   str r2,buff_value ;
02ed   1cc1
02ee   311a   mvrp r3,p1 ; 
02ef   0520   ldr r5,buff_inc ; 
02f0   1cc3
02f1   0420   ldr r4,buff_len ; 
02f2   1cc2
02f3   0620   ldr r6,memop ;
02f4   1ccb
02f5   060b   andv r6,3 ;
02f6   0003
02f7   1037   bra z,memfill2 ;
02f8   0007
02f9   0120   ldr r1,memode ; 
02fa   1cc9
02fb   2026   ldmam m2 ; 
02fc   110c   or r1,r1 ;
02fd   9037   bra nz,memfill3 ;
02fe   0008
02ff   212b   memfill2: strpi r2,p1 ; 
0300   5201   add r2,r5 ;
0301   0411   dec r4 ;
0302   9037   bra nz,memfill2 ;
0303   fffc
0304   0037   bra memfill4 ;
0305   000a
0306   212b   memfill3: strpi r2,p1 ; 
0307   2319   mvrr r2,r3 ;
0308   0318   shr4 r3 ; 
0309   0318   shr4 r3 ;
030a   312b   strpi r3,p1 ;
030b   5201   add r2,r5 ;
030c   0411   dec r4 ;
030d   9037   bra nz,memfill3 ;
030e   fff8
030f   0026   memfill4: ldmam m0 ; 
0310   003b   jsr tx_prmt ;
0311   038d
0312   003c   rts ; 
0313   2f2b   sesma: strpi r2,pF ;
0314   3f2b   strpi r3,pF ;
0315   012d   ldp p1,ssm_pst ;
0316   1c55
0317   1222   ssm_1: ldrp r2,p1 ;
0318   220c   or r2,r2 ;
0319   1037   bra e,ssm_2 ;
031a   000a
031b   2112   cmpr r1,r2 ;
031c   1037   bra e,ssm_2 ;
031d   0007
031e   131b   mvpr p1,r3 ; 
031f   0303   addv r3,4 ;
0320   0004
0321   311a   mvrp r3,p1 ;
0322   0037   bra ssm_1 ;
0323   fff4
0324   1223   ssm_2: ldrx r2,p1,1 ; 
0325   0001
0326   2213   cmprv r2,"R" ; 
0327   0052
0328   1037   bra e,p_rest ;
0329   0013
032a   2213   cmprv r2,"J" ; 
032b   004a
032c   1037   bra e,p_jump ;
032d   0009
032e   2213   cmprv r2,"S" ; 
032f   0053
0330   9037   bra ne,ssm_end ;
0331   000f
0332   0220   p_save: ldr r2,ssm_pst ; 
0333   1c55
0334   2028   str r2,ssm_lst ; 
0335   1c56
0336   1223   p_jump: ldrx r2,p1,3 ; 
0337   0003
0338   2028   str r2,ssm_pst ; 
0339   1c55
033a   0037   bra ssm_end ;
033b   0005
033c   0220   p_rest: ldr r2,ssm_lst ;
033d   1c56
033e   2028   str r2,ssm_pst ;
033f   1c55
0340   1223   ssm_end: ldrx r2,p1,2 ;
0341   0002
0342   211a   mvrp r2,p1 ;
0343   f325   ldrpd r3,pF ;
0344   f225   ldrpd r2,pF ;
0345   013a   ssm_exec: jmpp p1 ; 
0346   0739   tx_line: jmp f7,tx_ends ;
0347   036c
0348   b333   tx_line2: inpp r3,pB ; 
0349   030b   andv r3,TXEMPT ; 
034a   0020
034b   1037   bra z,tx_line2 ; 
034c   fffc
034d   c424   tx_char: ldrpi r4,pC ; 
034e   4413   cmprv r4,NULL ; 
034f   0000
0350   1037   bra z,tx_ends ; 
0351   001b
0352   4413   cmprv r4,"|" ;
0353   007c
0354   9037   bra nz,tx_nxt ;
0355   000f
0356   001f   ldcv c0,NUMFILL ; 
0357   0005
0358   b333   tx_fill: inpp r3,pB ; 
0359   030b   andv r3,TXFULL ; 
035a   0040
035b   9037   bra nz,tx_fill ; 
035c   fffc
035d   0421   ldrv r4,CHARFILL ; 
035e   002d
035f   4a35   outpp r4,pA ;
0360   0038   dcjnz c0,tx_fill ;
0361   0358
0362   0037   bra tx_line2 ; 
0363   ffe5
0364   4a35   tx_nxt: outpp r4,pA ; 
0365   b333   inpp r3,pB ; 
0366   030b   andv r3,TXFULL ; 
0367   0040
0368   9037   bra nz,tx_line2 ; 
0369   ffdf
036a   0037   bra tx_char ; 
036b   ffe2
036c   003c   tx_ends: rts ; 
036d   0739   tx_page: jmp f7,tx_ends ;
036e   036c
036f   003b   tx_page2: jsr tx_line ; 
0370   0346
0371   c11b   mvpr pC,r1 ;
0372   1028   str r1,temp0 ;
0373   1c48
0374   003b   jsr tx_prmt ; 
0375   038d
0376   0120   ldr r1,temp0 ;
0377   1c48
0378   1c1a   mvrp r1,pC ;
0379   c322   ldrp r3,pC ; 
037a   3313   cmprv r3,ETX ; 
037b   0003
037c   9037   bra nz,tx_page2 ; 
037d   fff2
037e   003c   rts ; 
037f   0739   tx_prmtcr: jmp f7,tx_ends ;
0380   036c
0381   0c2e   ldpv pC,promptcr ; 
0382   0c12
0383   003b   jsr tx_line ; 
0384   0346
0385   003c   rts ; 
0386   0739   tx_prmtlf: jmp f7,tx_ends ;
0387   036c
0388   0c2e   ldpv pC,promptlf ; 
0389   0c10
038a   003b   jsr tx_line ; 
038b   0346
038c   003c   rts ; 
038d   0739   tx_prmt: jmp f7,tx_ends ;
038e   036c
038f   0c2e   ldpv pC,prompt ; 
0390   0c0f
0391   003b   jsr tx_line ; 
0392   0346
0393   003c   rts ; 
0394   0739   tx_prmtx2: jmp f7,tx_ends ;
0395   036c
0396   0c2e   ldpv pC,promptx2 ; 
0397   0c0d
0398   003b   jsr tx_line ; 
0399   0346
039a   003c   rts ; 
039b   b133   chkstat: inpp r1,pB ; 
039c   010b   andv r1,TXFULL ; 
039d   0040
039e   9037   bra nz,chkstat ; 
039f   fffc
03a0   003c   rts ; 
03a1   2f2b   hex2asc: strpi r2,pF ; 
03a2   020b   andv r2,'h00F ;
03a3   000f
03a4   2213   cmprv r2,'h00A ;
03a5   000a
03a6   d037   bra lt,hex1 ;
03a7   0003
03a8   0203   addv r2,'h007 ;
03a9   0007
03aa   0203   hex1: addv r2,'h030 ;
03ab   0030
03ac   2028   str r2,hex1val ;
03ad   1c3e
03ae   f225   ldrpd r2,pF ; 
03af   0218   shr4 r2 ; 
03b0   020b   andv r2,'h00F ;
03b1   000f
03b2   2213   cmprv r2,'h00A ;
03b3   000a
03b4   d037   bra lt,hex2 ;
03b5   0003
03b6   0203   addv r2,'h007 ;
03b7   0007
03b8   0203   hex2: addv r2,'h030 ;
03b9   0030
03ba   2028   str r2,hex2val ;
03bb   1c3f
03bc   003c   rts ; 
03bd   1219   tohex2: mvrr r1,r2 ; 
03be   010b   andv r1,'h00ff ;
03bf   00ff
03c0   0107   subv r1,'h030 ; 
03c1   0030
03c2   1113   cmprv r1,9 ;
03c3   0009
03c4   f037   bra ls,tohex21 ;
03c5   0005
03c6   010b   andv r1,'h000f ;
03c7   000f
03c8   0103   addv r1,9 ;
03c9   0009
03ca   0218   tohex21: shr4 r2 ;
03cb   0218   shr4 r2 ;
03cc   020b   andv r2,'h00ff ;
03cd   00ff
03ce   0207   subv r2,'h030 ; 
03cf   0030
03d0   2213   cmprv r2,9 ;
03d1   0009
03d2   f037   bra ls,tohex22 ;
03d3   0005
03d4   020b   andv r2,'h000f ;
03d5   000f
03d6   0203   addv r2,9 ;
03d7   0009
03d8   0217   tohex22: shl4 r2 ;
03d9   020b   andv r2,'h00f0 ;
03da   00f0
03db   120c   or r2,r1 ;
03dc   003c   rts ; 
03dd   220e   asc2hex: xor r2,r2 ; 
03de   330e   xor r3,r3 ; 
03df   063e   uflag f6 ;
03e0   003b   rd_hex1: jsr rdchar ;
03e1   0440
03e2   0739   jmp f7,no_out_ch ;
03e3   03e5
03e4   1a35   outpp r1,pA ; 
03e5   1113   no_out_ch: cmprv r1,CR ;
03e6   000d
03e7   1037   bra z,rd_hex9 ;
03e8   0021
03e9   1113   cmprv r1,LF ;
03ea   000a
03eb   1037   bra z,rd_hex9 ;
03ec   001d
03ed   1113   cmprv r1,"-" ;
03ee   002d
03ef   9037   bra ne,noneg ;
03f0   0002
03f1   863e   uflag t6 ;
03f2   0107   noneg: subv r1,'h030 ; 
03f3   0030
03f4   3037   bra s,rd_hex1 ; 
03f5   ffeb
03f6   0215   shl l,r2 ;
03f7   1315   shl k,r3 ;
03f8   0215   shl l,r2 ;
03f9   1315   shl k,r3 ;
03fa   0215   shl l,r2 ;
03fb   1315   shl k,r3 ;
03fc   0215   shl l,r2 ;
03fd   1315   shl k,r3 ;
03fe   1113   cmprv r1,9 ;
03ff   0009
0400   f037   bra ls,rd_hex2 ;
0401   0005
0402   010b   andv r1,'h00F ; 
0403   000f
0404   0103   addv r1,9 ;
0405   0009
0406   120c   rd_hex2: or r2,r1 ;
0407   0037   bra rd_hex1 ;
0408   ffd8
0409   0639   rd_hex9: jmp f6,rd_hexa ;
040a   040f
040b   2209   not r2,r2 ;
040c   3309   not r3,r3 ;
040d   0203   addv r2,1 ;
040e   0001
040f   003c   rd_hexa: rts ;
0410   0203   disdigit: addv r2,'h30 ; 
0411   0030
0412   2a35   outpp r2,pA ; 
0413   0221   ldrv r2,CR ;
0414   000d
0415   2a35   outpp r2,pA ; 
0416   003c   rts ; 
0417   2319   dishexs: mvrr r2,r3 ;
0418   030b   andv r3,SIGNED ;
0419   8000
041a   1037   bra z,dishex4 ;
041b   0007
041c   2209   not r2 ;
041d   0203   addv r2,1 ;
041e   0001
041f   0321   ldrv r3,"-" ;
0420   002d
0421   3a35   outpp r3,pA ; 
0422   2319   dishex4: mvrr r2,r3 ;
0423   0218   shr4 r2 ;
0424   0218   shr4 r2 ;
0425   003b   jsr hex2asc ;
0426   03a1
0427   0120   ldr r1,hex2val ;
0428   1c3f
0429   1a35   outpp r1,pA ;
042a   003b   jsr chkstat ;
042b   039b
042c   0120   ldr r1,hex1val ;
042d   1c3e
042e   1a35   outpp r1,pA ;
042f   3219   mvrr r3,r2 ;
0430   003b   dishex2: jsr hex2asc ;
0431   03a1
0432   0120   ldr r1,hex2val ;
0433   1c3f
0434   1a35   outpp r1,pA ;
0435   003b   jsr chkstat ;
0436   039b
0437   0120   ldr r1,hex1val ;
0438   1c3e
0439   1a35   outpp r1,pA ;
043a   003b   jsr chkstat ;
043b   039b
043c   0121   ldrv r1,SPC ;
043d   0020
043e   1a35   outpp r1,pA ;
043f   003c   rts ; 
0440   b133   rdchar: inpp r1,pB ; 
0441   0141   bitv r1,RXDVLD ; 
0442   0080
0443   1037   bra z,rdchar ; 
0444   fffc
0445   a133   inpp r1,pA ; 
0446   010b   andv r1,'hFF ; 
0447   00ff
0448   1028   str r1,inpchar ; 
0449   1c42
044a   003c   rts ; 
044b   0c2e   setyear: ldpv pC,hexval4_m ; 
044c   0bca
044d   003b   jsr tx_line ;
044e   0346
044f   003b   jsr asc2hex ; 
0450   03dd
0451   2028   str r2,tmr1year ;
0452   1ccf
0453   003b   jsr tx_prmt ;
0454   038d
0455   003c   rts ; 
0456   0c2e   setmonth: ldpv pC,hexval4_m ; 
0457   0bca
0458   003b   jsr tx_line ;
0459   0346
045a   003b   jsr asc2hex ; 
045b   03dd
045c   2028   str r2,tmr1month ;
045d   1cd0
045e   003b   jsr tx_prmt ;
045f   038d
0460   003c   rts ; 
0461   0c2e   setdate: ldpv pC,hexval4_m ; 
0462   0bca
0463   003b   jsr tx_line ;
0464   0346
0465   003b   jsr asc2hex ; 
0466   03dd
0467   2028   str r2,tmr1date ;
0468   1cd1
0469   003b   jsr tx_prmt ;
046a   038d
046b   003c   rts ; 
046c   0c2e   sethour: ldpv pC,hexval4_m ; 
046d   0bca
046e   003b   jsr tx_line ;
046f   0346
0470   003b   jsr asc2hex ; 
0471   03dd
0472   2028   str r2,tmr1hour ;
0473   1cd2
0474   220e   xor r2,r2 ;
0475   2028   str r2,tmr1min ;
0476   1cd3
0477   2028   str r2,tmr1sec ;
0478   1cd4
0479   003b   jsr tx_prmt ;
047a   038d
047b   003c   rts ; 
047c   0c2e   setmin: ldpv pC,hexval4_m ; 
047d   0bca
047e   003b   jsr tx_line ;
047f   0346
0480   003b   jsr asc2hex ; 
0481   03dd
0482   2028   str r2,tmr1min ;
0483   1cd3
0484   220e   xor r2,r2 ;
0485   2028   str r2,tmr1sec ;
0486   1cd4
0487   003b   jsr tx_prmt ;
0488   038d
0489   003c   rts ; 
048a   0c2e   setsec: ldpv pC,hexval4_m ; 
048b   0bca
048c   003b   jsr tx_line ;
048d   0346
048e   003b   jsr asc2hex ; 
048f   03dd
0490   2028   str r2,tmr1sec ;
0491   1cd4
0492   003b   jsr tx_prmt ;
0493   038d
0494   003c   rts ; 
0495   0c2e   d_scpsrc: ldpv pC,hexval4_m ; 
0496   0bca
0497   003b   jsr tx_line ;
0498   0346
0499   003b   jsr asc2hex ; 
049a   03dd
049b   020b   andv r2,'h0003 ; 
049c   0003
049d   0217   shl4 r2 ;
049e   0217   shl4 r2 ;
049f   0217   shl4 r2 ;
04a0   0132   inp r1,GPREG_07 ;
04a1   0007
04a2   010b   andv r1,SCOPE_NSK ;
04a3   cfff
04a4   210c   or r1,r2 ;
04a5   1034   outp r1,GPREG_07 ;
04a6   0007
04a7   003b   jsr tx_prmt ;
04a8   038d
04a9   003c   rts ; 
04aa   0c2e   d_trgsrc: ldpv pC,hexval4_m ; 
04ab   0bca
04ac   003b   jsr tx_line ;
04ad   0346
04ae   003b   jsr asc2hex ; 
04af   03dd
04b0   020b   andv r2,'h0003 ; 
04b1   0003
04b2   0217   shl4 r2 ;
04b3   0217   shl4 r2 ;
04b4   0217   shl4 r2 ;
04b5   0215   shl r2 ;
04b6   0215   shl r2 ;
04b7   0132   inp r1,GPREG_07 ;
04b8   0007
04b9   010b   andv r1,TRIGS_NSK ;
04ba   3fff
04bb   210c   or r1,r2 ;
04bc   1034   outp r1,GPREG_07 ;
04bd   0007
04be   003b   jsr tx_prmt ;
04bf   038d
04c0   003c   rts ; 
04c1   0c2e   setarst: ldpv pC,hexval4_m ; 
04c2   0bca
04c3   003b   jsr tx_line ;
04c4   0346
04c5   003b   jsr asc2hex ; 
04c6   03dd
04c7   2034   outp r2,GPREG_01 ;
04c8   0001
04c9   003b   jsr tx_prmt ;
04ca   038d
04cb   003c   rts ; 
04cc   0c2e   setaper: ldpv pC,hexval4_m ; 
04cd   0bca
04ce   003b   jsr tx_line ;
04cf   0346
04d0   003b   jsr asc2hex ; 
04d1   03dd
04d2   2034   outp r2,GPREG_04 ;
04d3   0004
04d4   003b   jsr tx_prmt ;
04d5   038d
04d6   003c   rts ; 
04d7   0c2e   setapul0: ldpv pC,hexval4_m ; 
04d8   0bca
04d9   003b   jsr tx_line ;
04da   0346
04db   003b   jsr asc2hex ; 
04dc   03dd
04dd   2034   outp r2,GPREG_05 ; 
04de   0005
04df   003b   jsr tx_prmt ;
04e0   038d
04e1   003c   rts ; 
04e2   0c2e   setapul1: ldpv pC,hexval4_m ; 
04e3   0bca
04e4   003b   jsr tx_line ;
04e5   0346
04e6   003b   jsr asc2hex ; 
04e7   03dd
04e8   2034   outp r2,GPREG_06 ; 
04e9   0006
04ea   003b   jsr tx_prmt ;
04eb   038d
04ec   003c   rts ; 
04ed   013f   d_fastpwm: uport f1 ;
04ee   0121   ldrv r1,PWM_PERIOD ;
04ef   001f
04f0   1034   outp r1,GPREG_04 ;
04f1   0004
04f2   0121   ldrv r1,PWM_LOW ;
04f3   0008
04f4   1034   outp r1,GPREG_05 ;
04f5   0005
04f6   0121   ldrv r1,PWM_HIGH ;
04f7   0016
04f8   1034   outp r1,GPREG_06 ;
04f9   0006
04fa   813f   uport t1 ;
04fb   003c   rts ; 
04fc   013f   d_slowpwm: uport f1 ;
04fd   0121   ldrv r1,PWM_PERIOD ;
04fe   001f
04ff   0115   shl l,r1 ;
0500   1034   outp r1,GPREG_04 ;
0501   0004
0502   0121   ldrv r1,PWM_LOW ;
0503   0008
0504   0115   shl l,r1 ;
0505   1034   outp r1,GPREG_05 ;
0506   0005
0507   0121   ldrv r1,PWM_HIGH ;
0508   0016
0509   0115   shl l,r1 ;
050a   1034   outp r1,GPREG_06 ;
050b   0006
050c   813f   uport t1 ;
050d   003c   rts ; 
050e   0132   d_target: inp r1,GPREG_07 ; 
050f   0007
0510   010b   andv r1,TARGET_NSK ;
0511   fffe
0512   010d   orv r1,TARGET_MSK ;
0513   0001
0514   1034   outp r1,GPREG_07 ;
0515   0007
0516   001f   ldcv c0,10 ; 
0517   000a
0518   0000   d_target2: nop ;
0519   0000   nop ; 
051a   0038   dcjnz c0,d_target2 ;
051b   0518
051c   0000   nop;  
051d   010b   andv r1,TARGET_NSK ;
051e   fffe
051f   1034   outp r1,GPREG_07 ;
0520   0007
0521   0c2e   ldpv pC,treset_m ; 
0522   0be0
0523   003b   jsr tx_line ; 
0524   0346
0525   003b   jsr tx_prmtx2 ;
0526   0394
0527   003c   rts ; 
0528   0c2e   d_pcode: ldpv pC,hexval4_m ; 
0529   0bca
052a   003b   jsr tx_line ;
052b   0346
052c   003b   jsr asc2hex ; 
052d   03dd
052e   020b   andv r2,PCODE_MSK ; 
052f   0002
0530   0132   inp r1,GPREG_07 ;
0531   0007
0532   010b   andv r1,PCODE_NSK ;
0533   fffd
0534   210c   or r1,r2 ;
0535   1034   outp r1,GPREG_07 ;
0536   0007
0537   003b   jsr tx_prmt ;
0538   038d
0539   003c   rts ; 
053a   0c2e   irq_set: ldpv pC,hexval4_m ;
053b   0bca
053c   003b   jsr tx_line ;
053d   0346
053e   003b   jsr asc2hex ; 
053f   03dd
0540   2028   str r2,irqmask ; 
0541   1c52
0542   220c   or r2,r2 ; 
0543   1037   bra z,irq_dis ;
0544   0004
0545   0045   irq_enb: sei ;
0546   843f   uport t4 ; 
0547   003c   rts ; 
0548   0046   irq_dis: cli ;
0549   043f   uport f4 ; 
054a   003c   rts ; 
054b   023f   d_pixels: uport f2 ; 
054c   003b   jsr setcolor0 ; 
054d   0639
054e   013f   uport f1 ; 
054f   0c2e   ldpv pC,hexval4_m ;
0550   0bca
0551   003b   jsr tx_line ;
0552   0346
0553   003b   jsr asc2hex ; 
0554   03dd
0555   2034   outp r2,GPREG_00 ; 
0556   0000
0557   2028   str r2,numpixels ;
0558   1c9e
0559   003b   jsr tx_prmt ;
055a   038d
055b   813f   uport t1 ; 
055c   003c   rts ; 
055d   0c2e   d_pixelson: ldpv pC,hexval4_m ;
055e   0bca
055f   003b   jsr tx_line ;
0560   0346
0561   003b   jsr asc2hex ; 
0562   03dd
0563   2028   str r2,pixelson ; 
0564   1cc5
0565   003c   rts ; 
0566   0c2e   d_readmode: ldpv pC,hexval4_m ;
0567   0bca
0568   003b   jsr tx_line ;
0569   0346
056a   003b   jsr asc2hex ; 
056b   03dd
056c   020b   andv r2,3 ; 
056d   0003
056e   2028   str r2,read_mode ; 
056f   1cd5
0570   000e   xor r0,r0 ; 
0571   0028   str r0,walk_cnt ;
0572   1c4d
0573   003c   rts ; 
0574   023f   d_enbfg: uport f2 ; 
0575   043e   uflag f4 ;
0576   110e   xor r1,r1 ;
0577   0039   jmp d_enbfgbg ;
0578   057d
0579   823f   d_enbbg: uport t2 ; 
057a   843e   uflag t4 ;
057b   0121   ldrv r1,1 ;
057c   0001
057d   172a   d_enbfgbg: strx r1,p7,FG_IX ; 
057e   0001
057f   003c   rts ; 
0580   0c2e   d_timer1: ldpv pC,hexval4_m ; 
0581   0bca
0582   003b   jsr tx_line ;
0583   0346
0584   003b   jsr asc2hex ; 
0585   03dd
0586   2028   str r2,tmr1msec ;
0587   1c4b
0588   2028   str r2,tmr1value ;
0589   1c4c
058a   0e3e   uflag fE ; 
058b   2e19   mvrr r2,rE ;
058c   0e2e   ldpv pE,0 ;
058d   0000
058e   003c   rts ; 
058f   0c2e   d_dimstep: ldpv pC,hexval4_m ; 
0590   0bca
0591   003b   jsr tx_line ;
0592   0346
0593   003b   d_dimstep2: jsr asc2hex ; 
0594   03dd
0595   020b   andv r2,'h000F ;
0596   000f
0597   2028   str r2,dimsteps ;
0598   1cc6
0599   003c   d_dimstep3: rts ;
059a   2519   create_msk: mvrr r2,r5 ; 
059b   660e   xor r6,r6 ; 
059c   770e   xor r7,r7 ; 
059d   050b   andv r5,'h00ff ;
059e   00ff
059f   1037   bra z,c_msk_1 ; 
05a0   0003
05a1   0621   ldrv r6,'h00ff ; 
05a2   00ff
05a3   020b   c_msk_1: andv r2,'hff00 ;
05a4   ff00
05a5   1037   bra z,c_msk_2 ; 
05a6   0003
05a7   060d   orv r6,'hff00 ; 
05a8   ff00
05a9   030b   c_msk_2: andv r3,'h00ff ; 
05aa   00ff
05ab   1037   bra z,c_msk_3 ; 
05ac   0003
05ad   0721   ldrv r7,'h00ff ; 
05ae   00ff
05af   6028   c_msk_3: str r6,colormskrg ;
05b0   1cc7
05b1   7028   str r7,colormskwb ;
05b2   1cc8
05b3   003c   rts ; 
05b4   0c2e   d_colors: ldpv pC,hexval4_m ; 
05b5   0bca
05b6   003b   jsr tx_line ;
05b7   0346
05b8   003b   d_colors2: jsr asc2hex ; 
05b9   03dd
05ba   2f2b   push r2,pF ;
05bb   3f2b   push r3,pF ;
05bc   0000   nop ; 
05bd   003b   jsr create_msk ; 
05be   059a
05bf   f325   pop r3,pF ;
05c0   f225   pop r2,pF ;
05c1   8439   jmp t4,d_colorsb ;
05c2   05c7
05c3   012e   ldpv p1,rgbtab ;
05c4   1c57
05c5   0037   bra d_colorall ;
05c6   0003
05c7   012e   ldpv p1,rgbtab_bg ;
05c8   1c77
05c9   0120   d_colorall: ldr r1,channel ;
05ca   1cbb
05cb   0115   shl l,r1 ;
05cc   1104   addrp r1,p1 ;
05cd   111a   mvrp r1,p1 ;
05ce   212b   strpi r2,p1 ;
05cf   3129   strp r3,p1 ;
05d0   2028   str r2,colorsetrg ;
05d1   1cbd
05d2   3028   str r3,colorsetwb ;
05d3   1cbe
05d4   003b   jsr refresh ;
05d5   05d7
05d6   003c   rts ; 
05d7   001f   refresh: ldcv c0,RGBLENGTHF ; 
05d8   003f
05d9   012e   ldpv p1,rgbtab ; 
05da   1c57
05db   022e   ldpv p2,APPREG_00 ; 
05dc   0100
05dd   1124   d_enbloop1: ldrpi r1,p1 ;
05de   1235   outpp r1,p2 ;
05df   0230   incp p2 ;
05e0   0038   dcjnz c0,d_enbloop1 ;
05e1   05dd
05e2   003c   rts ; 
05e3   0c2e   d_channel: ldpv pC,hexval4_m ; 
05e4   0bca
05e5   003b   jsr tx_line ;
05e6   0346
05e7   003b   d_channel2: jsr asc2hex ; 
05e8   03dd
05e9   020b   andv r2,MAXCHAN ; 
05ea   000f
05eb   2028   str r2,channel ;
05ec   1cbb
05ed   003c   d_channel3: rts ;
05ee   0c2e   d_colorin: ldpv pC,hexval4_m ; 
05ef   0bca
05f0   003b   jsr tx_line ;
05f1   0346
05f2   003b   d_colorin2: jsr asc2hex ; 
05f3   03dd
05f4   020b   andv r2,7 ; 
05f5   0007
05f6   012e   ldpv p1,intensity_tab;
05f7   1c33
05f8   1204   addrp r2,p1 ;
05f9   211a   mvrp r2,p1 ;
05fa   1222   ldrp r2,p1 ;
05fb   2028   str r2,intensity ;
05fc   1cbc
05fd   003c   d_colorin3: rts ;
05fe   023f   d_enbthe: uport f2 ; 
05ff   0c2e   ldpv pC,hexval4_m ;
0600   0bca
0601   003b   jsr tx_line ;
0602   0346
0603   003b   d_enbthe2: jsr asc2hex ; 
0604   03dd
0605   020b   andv r2,THEMELENGTH ; 
0606   000f
0607   2028   str r2,poffset ;
0608   1ccc
0609   032e   ldpv p3,the_table ; 
060a   1c13
060b   2344   ldpy p3,r2 ;
060c   302f   stp p3,tjump ;
060d   1cce
060e   033a   jmpp p3 ;
060f   023f   d_runthem0: uport f2 ; 
0610   220e   xor r2,r2 ; 
0611   2028   str r2,walk_cnt ;
0612   1c4d
0613   2028   str r2,walk_on ;
0614   1c4e
0615   2028   str r2,read_mode ;
0616   1cd5
0617   013e   uflag f1 ; 
0618   0039   jmp d_enbpat0 ; 
0619   0630
061a   023f   d_enbpat: uport f2 ; 
061b   0c2e   ldpv pC,hexval4_m ;
061c   0bca
061d   003b   jsr tx_line ;
061e   0346
061f   003b   d_enbpat2: jsr asc2hex ; 
0620   03dd
0621   2028   str r2,poffset ;
0622   1ccc
0623   020b   andv r2,PATLENGTH ; 
0624   000f
0625   9037   bra nz,d_enbpat1 ;
0626   0007
0627   0121   ldrv r1,1 ;
0628   0001
0629   1028   str r1,walk_on ;
062a   1c4e
062b   0037   bra d_enbpat0 ;
062c   0004
062d   110e   d_enbpat1: xor r1,r1 ;
062e   1028   str r1,walk_on ;
062f   1c4e
0630   032e   d_enbpat0: ldpv p3,pat_table ; 
0631   1c23
0632   2344   ldpy p3,r2 ;
0633   302f   stp p3,pjump ;
0634   1cd6
0635   0e2e   ldpv pE,'h0000 ; 
0636   0000
0637   833e   uflag t3 ; 
0638   003c   rts ; 
0639   220e   setcolor0: xor r2,r2 ; 
063a   330e   xor r3,r3 ; 
063b   440e   xor r4,r4 ; 
063c   550e   xor r5,r5 ; 
063d   4028   str r4,colormskrg ;
063e   1cc7
063f   5028   str r5,colormskwb ;
0640   1cc8
0641   0039   jmp setdefcolor ;
0642   069b
0643   0220   setcolor1: ldr r2,intensity ; 
0644   1cbc
0645   020b   andv r2,RED ; 
0646   00ff
0647   0321   ldrv r3,'h0000 ; 
0648   0000
0649   0421   ldrv r4,RED ; 
064a   00ff
064b   0521   ldrv r5,'h0000 ; 
064c   0000
064d   0039   jmp setdefcolor ; 
064e   069b
064f   0221   setcolor2: ldrv r2,'h0000 ; 
0650   0000
0651   0320   ldr r3,intensity ; 
0652   1cbc
0653   030b   andv r3,GRN ; 
0654   00ff
0655   0421   ldrv r4,'h0000 ; 
0656   0000
0657   0521   ldrv r5,GRN ; 
0658   00ff
0659   0039   jmp setdefcolor ; 
065a   069b
065b   0220   setcolor3: ldr r2,intensity ; 
065c   1cbc
065d   020b   andv r2,RED ; 
065e   00ff
065f   0320   ldr r3,intensity ; 
0660   1cbc
0661   030b   andv r3,GRN ; 
0662   00ff
0663   0421   ldrv r4,RED ; 
0664   00ff
0665   0521   ldrv r5,GRN ; 
0666   00ff
0667   0039   jmp setdefcolor ; 
0668   069b
0669   0220   setcolor4: ldr r2,intensity ; 
066a   1cbc
066b   020b   andv r2,BLU ; 
066c   ff00
066d   0321   ldrv r3,'h0000 ; 
066e   0000
066f   0421   ldrv r4,BLU ; 
0670   ff00
0671   0521   ldrv r5,'h0000 ; 
0672   0000
0673   0039   jmp setdefcolor ; 
0674   069b
0675   0220   setcolor5: ldr r2,intensity ; 
0676   1cbc
0677   020b   andv r2,'hFFFF ; 
0678   ffff
0679   0321   ldrv r3,'h0000 ; 
067a   0000
067b   0421   ldrv r4,'hFFFF ; 
067c   ffff
067d   0521   ldrv r5,'h0000 ; 
067e   0000
067f   0039   jmp setdefcolor ; 
0680   069b
0681   0220   setcolor6: ldr r2,intensity ; 
0682   1cbc
0683   020b   andv r2,BLU ; 
0684   ff00
0685   0320   ldr r3,intensity ; 
0686   1cbc
0687   030b   andv r3,GRN ; 
0688   00ff
0689   0421   ldrv r4,BLU ; 
068a   ff00
068b   0521   ldrv r5,GRN ; 
068c   00ff
068d   0039   jmp setdefcolor ; 
068e   069b
068f   0220   setcolor7: ldr r2,intensity ; 
0690   1cbc
0691   020b   andv r2,WHT ; 
0692   ffff
0693   0320   ldr r3,intensity ; 
0694   1cbc
0695   030b   andv r3,GRN ; 
0696   00ff
0697   0421   ldrv r4,WHT ; 
0698   ffff
0699   0521   ldrv r5,GRN ; 
069a   00ff
069b   2028   setdefcolor:str r2,colorsetrg ;
069c   1cbd
069d   3028   str r3,colorsetwb ;
069e   1cbe
069f   4028   str r4,colormskrg ;
06a0   1cc7
06a1   5028   str r5,colormskwb ;
06a2   1cc8
06a3   8439   jmp t4,setcolorbg ;
06a4   06ab
06a5   012e   ldpv p1,rgbtab ;
06a6   1c57
06a7   022e   ldpv p2,APPREG_00 ;
06a8   0100
06a9   0037   bra setcolor ;
06aa   0005
06ab   012e   setcolorbg: ldpv p1,rgbtab_bg ;
06ac   1c77
06ad   022e   ldpv p2,APPREG_10 ;
06ae   0120
06af   001f   setcolor: ldcv c0,RGBLENGTHH ; 
06b0   000f
06b1   212b   setloop1: strpi r2,p1 ;
06b2   312b   strpi r3,p1 ;
06b3   2235   outpp r2,p2 ;
06b4   0230   incp p2 ;
06b5   3235   outpp r3,p2 ;
06b6   0230   incp p2 ;
06b7   0038   dcjnz c0,setloop1 ; 
06b8   06b1
06b9   033e   uflag f3 ; 
06ba   003c   rts ; 
06bb   033e   savecolor: uflag f3 ; 
06bc   0220   ldr r2,colorsetrg ; 
06bd   1cbd
06be   0320   ldr r3,colorsetwb ; 
06bf   1cbe
06c0   032e   ldpv p3,colorset ;
06c1   1cdf
06c2   0520   ldr r5,colorcnt ;
06c3   1cb7
06c4   5619   mvrr r5,r6 ;
06c5   0515   scolor1: shl r5 ;
06c6   3504   addrp r5,p3 ;
06c7   531a   mvrp r5,p3 ;
06c8   232b   strpi r2,p3 ; 
06c9   332b   strpi r3,p3 ;
06ca   0610   inc r6 ;
06cb   6613   cmprv r6,50 ; 
06cc   0032
06cd   5037   bra ge,scolor3 ;
06ce   0003
06cf   6028   scolor2: str r6,colorcnt ;
06d0   1cb7
06d1   003c   scolor3: rts ;
06d2   033e   resetcolor: uflag f3 ; 
06d3   043e   uflag f4 ; 
06d4   023f   uport f2 ; 
06d5   110e   xor r1,r1 ;
06d6   1028   str r1,ready2go ; 
06d7   1cba
06d8   1028   str r1,colorcnt ; 
06d9   1cb7
06da   1028   str r1,colorseg ; 
06db   1cb8
06dc   1028   str r1,residual ; 
06dd   1cb9
06de   1028   str r1,walk_cnt ;
06df   1c4d
06e0   1028   str r1,walk_on ;
06e1   1c4e
06e2   003b   jsr refresh ; 
06e3   05d7
06e4   001f   ldcv c0,7 ;
06e5   0007
06e6   012e   ldpv p1,dbugptr ;
06e7   1caf
06e8   112b   strpi r1,p1 ;
06e9   0038   dcjnz c0,resetcolor2 ;
06ea   06e8
06eb   003c   rts ; 
06ec   0c2e   d_bufmode: ldpv pC,hexval4_m ; 
06ed   0bca
06ee   003b   jsr tx_line ;
06ef   0346
06f0   003b   d_bufmode2: jsr asc2hex ; 
06f1   03dd
06f2   020b   andv r2,3 ; 
06f3   0003
06f4   2028   str r2,buff_mode ;
06f5   1ccd
06f6   003c   rts ; 
06f7   0c2e   d_pagenum: ldpv pC,hexval4_m ; 
06f8   0bca
06f9   003b   jsr tx_line ;
06fa   0346
06fb   003b   d_pagenum2:jsr asc2hex ; 
06fc   03dd
06fd   020b   andv r2,'h0007 ; 
06fe   0007
06ff   272a   strx r2,p7,SR_IX ; 
0700   0000
0701   2042   ldpag r2 ; 
0702   003b   jsr tx_prmt ;
0703   038d
0704   003c   d_pagenum3: rts ;
0705   0c2e   d_buff_idx: ldpv pC,hexval4_m ; 
0706   0bca
0707   003b   jsr tx_line ;
0708   0346
0709   003b   d_buff_idx2:jsr asc2hex ; 
070a   03dd
070b   020b   andv r2,VIRTUAL_CHA ; 
070c   80ff
070d   2028   str r2,buff_idx ; 
070e   1cc4
070f   003b   jsr tx_prmt ;
0710   038d
0711   003c   d_buff_idx3:rts ;
0712   0420   computeseg: ldr r4,colorcnt ;
0713   1cb7
0714   440c   or r4,r4 ; 
0715   9037   bra nz,computseg0 ;
0716   0004
0717   110e   xor r1,r1 ; 
0718   0037   bra computseg2 ;
0719   0009
071a   0121   computseg0: ldrv r1,1 ;
071b   0001
071c   0520   ldr r5,numpixels ;
071d   1c9e
071e   003b   jsr division ;
071f   0a6e
0720   3028   str r3,residual ; 
0721   1cb9
0722   6028   computseg2: str r6,colorseg ;
0723   1cb8
0724   1028   str r1,ready2go ;
0725   1cba
0726   003c   rts ; 
0727   012e   computeptr: ldpv p1,buf_table ;
0728   1c9f
0729   0120   ldr r1,channel ;
072a   1cbb
072b   1104   addrp r1,p1 ;
072c   111a   mvrp r1,p1 ;
072d   1122   ldrp r1,p1 ;
072e   172a   strx r1,p7,IR_IX ; 
072f   0002
0730   1028   str r1,buff_addr ; 
0731   1cbf
0732   0420   ldr r4,numpixels ; 
0733   1c9e
0734   4415   shl r4,r4 ; 
0735   4028   str r4,buff_len ; 
0736   1cc2
0737   0415   shl r4 ; 
0738   220e   xor r2,r2 ; 
0739   0520   ldr r5,buff_idx ;
073a   1cc4
073b   5319   mvrr r5,r3 ; 
073c   050b   andv r5,SIGNED ; 
073d   8000
073e   9037   bra nz,computprt0 ;
073f   0003
0740   0037   bra computptr1 ;
0741   0003
0742   0320   computprt0: ldr r3,channel ; 
0743   1cbb
0744   330c   computptr1: or r3,r3 ;
0745   1037   bra z,computptr3 ;
0746   0005
0747   4201   computptr2: add r2,r4 ;
0748   0311   dec r3 ;
0749   9037   bra nz,computptr2 ;
074a   fffd
074b   2028   computptr3: str r2,buff_addrx ;
074c   1cc0
074d   272a   strx r2,p7,ER_IX ; 
074e   0003
074f   003c   rts ; 
0750   003b   savebuf: jsr computeptr ;
0751   0727
0752   012d   ldp p1,buff_addr ; 
0753   1cbf
0754   022d   ldp p2,buff_addrx ; 
0755   1cc0
0756   0420   ldr r4,buff_len ; 
0757   1cc2
0758   2026   ldmam m2 ; 
0759   001f   savebuf1: ldcv c0,1 ; 
075a   0001
075b   1224   ldrpi r2,p1 ; 
075c   222b   savebuf2: strpi r2,p2 ; 
075d   0218   shr4 r2 ;
075e   0218   shr4 r2 ;
075f   0038   dcjnz c0,savebuf2 ;
0760   075c
0761   0411   dec r4 ;
0762   9037   bra nz,savebuf1 ;
0763   fff6
0764   0026   ldmam m0 ; 
0765   111b   mvpr p1,r1 ;
0766   172a   strx r1,p7,IRL_IX ; 
0767   0004
0768   211b   mvpr p2,r1 ;
0769   172a   strx r1,p7,ERL_IX ; 
076a   0005
076b   003b   jsr tx_prmt ;
076c   038d
076d   003c   rts ; 
076e   003b   restorebuf: jsr computeptr ;
076f   0727
0770   012d   ldp p1,buff_addr ;
0771   1cbf
0772   022d   ldp p2,buff_addrx ; 
0773   1cc0
0774   0420   ldr r4,buff_len ; 
0775   1cc2
0776   1026   ldmam m1 ; 
0777   330e   restorebuf1:xor r3,r3 ;
0778   2224   ldrpi r2,p2 ; 
0779   230c   or r3,r2 ;
077a   2224   ldrpi r2,p2 ;
077b   0217   shl4 r2 ;
077c   0217   shl4 r2 ;
077d   230c   or r3,r2 ;
077e   312b   strpi r3,p1 ;
077f   0411   dec r4 ;
0780   9037   bra nz,restorebuf1 ;
0781   fff6
0782   0026   ldmam m0 ; 
0783   111b   mvpr p1,r1 ;
0784   172a   strx r1,p7,IRL_IX ; 
0785   0004
0786   211b   mvpr p2,r1 ;
0787   172a   strx r1,p7,ERL_IX ; 
0788   0005
0789   003b   jsr tx_prmt ;
078a   038d
078b   003c   rts ; 
078c   033e   theme0: uflag f3 ; 
078d   003b   jsr computeseg ; 
078e   0712
078f   0120   ldr r1,ready2go ;
0790   1cba
0791   110c   or r1,r1 ; 
0792   1037   bra z,theme0_4 ; 
0793   0040
0794   012e   theme0_0: ldpv p1,buf_table ; 
0795   1c9f
0796   0120   ldr r1,channel ; 
0797   1cbb
0798   1144   ldpy p1,r1 ; 
0799   151b   mvpr p1,r5 ; 
079a   022e   ldpv p2,colorset ; 
079b   1cdf
079c   0420   ldr r4,numpixels ; 
079d   1c9e
079e   4719   mvrr r4,r7 ; 
079f   0620   ldr r6,colorseg ; 
07a0   1cb8
07a1   0820   ldr r8,colorcnt ; 
07a2   1cb7
07a3   0920   ldr r9,intensity ; 
07a4   1cbc
07a5   0120   ldr r1,buff_mode ; 
07a6   1ccd
07a7   110c   or r1,r1 ;
07a8   9037   bra nz,theme0_3 ; 
07a9   0016
07aa   2224   ldrpi r2,p2 ; 
07ab   920a   and r2,r9 ;
07ac   2324   ldrpi r3,p2 ; 
07ad   930a   and r3,r9 ;
07ae   212b   theme0_1: strpi r2,p1 ; 
07af   312b   strpi r3,p1 ; 
07b0   0411   dec r4 ; 
07b1   9037   bra nz,theme0_1 ;
07b2   fffc
07b3   511a   mvrp r5,p1 ; 
07b4   2224   ldrpi r2,p2 ; 
07b5   920a   and r2,r9 ;
07b6   2324   ldrpi r3,p2 ; 
07b7   930a   and r3,r9 ;
07b8   6705   sub r7,r6 ; 
07b9   0811   dec r8 ; 
07ba   1037   bra z,theme0_4 ; 
07bb   0018
07bc   7419   mvrr r7,r4 ; 
07bd   0037   bra theme0_1 ;
07be   fff0
07bf   0711   theme0_3: dec r7 ; 
07c0   770c   or r7,r7 ; 
07c1   3037   bra s,theme0_4 ; 
07c2   0011
07c3   2224   ldrpi r2,p2 ; 
07c4   920a   and r2,r9 ;
07c5   2324   ldrpi r3,p2 ; 
07c6   930a   and r3,r9 ;
07c7   212b   strpi r2,p1 ; 
07c8   312b   strpi r3,p1 ; 
07c9   0811   dec r8 ; 
07ca   9037   bra nz,theme0_3 ;
07cb   fff4
07cc   0820   ldr r8,colorcnt ; 
07cd   1cb7
07ce   022e   ldpv p2,colorset ; 
07cf   1cdf
07d0   0611   dec r6 ; 
07d1   0037   bra theme0_3 ; 
07d2   ffed
07d3   003c   theme0_4: rts ;
07d4   033e   t_xmas: uflag f3 ; 
07d5   012e   ldpv p1,buf_table ; 
07d6   1c9f
07d7   0120   ldr r1,channel ; 
07d8   1cbb
07d9   1144   ldpy p1,r1 ; 
07da   0420   ldr r4,numpixels ; 
07db   1c9e
07dc   0920   ldr r9,intensity ; 
07dd   1cbc
07de   0221   ldrv r2,'h00FF ; 
07df   00ff
07e0   920a   and r2,r9 ; 
07e1   0321   ldrv r3,'h0000 ;
07e2   0000
07e3   2719   mvrr r2,r7 ;
07e4   3819   mvrr r3,r8 ;
07e5   212b   tloop1_1: strpi r2,p1 ;
07e6   312b   strpi r3,p1 ;
07e7   001f   ldcv c0,7 ;
07e8   0007
07e9   0215   tloop1_2: shl l,r2 ;
07ea   1315   shl k,r3 ;
07eb   0038   dcjnz c0,tloop1_2 ;
07ec   07e9
07ed   030b   andv r3,'h00FF ;
07ee   00ff
07ef   2519   mvrr r2,r5 ;
07f0   3619   mvrr r3,r6 ;
07f1   650c   or r5,r6 ;
07f2   9037   bra ne,theme1_1 ;
07f3   0003
07f4   7219   mvrr r7,r2 ;
07f5   8319   mvrr r8,r3 ;
07f6   0411   theme1_1: dec r4 ;
07f7   9037   bra nz,tloop1_1 ;
07f8   ffed
07f9   0039   jmp tx_prmt ;
07fa   038d
07fb   033e   t_xmas2: uflag f3 ; 
07fc   012e   ldpv p1,buf_table ; 
07fd   1c9f
07fe   0120   ldr r1,channel ;
07ff   1cbb
0800   1144   ldpy p1,r1 ; 
0801   220e   xor r2,r2 ;
0802   2319   mvrr r2,r3 ; 
0803   0420   ldr r4,numpixels ; 
0804   1c9e
0805   220c   tloop1: or r2,r2 ;
0806   9037   bra nz,theme2_1 ;
0807   0008
0808   030b   andv r3,'h00FF ;
0809   00ff
080a   9037   bra nz,theme2_1 ;
080b   0004
080c   0221   ldrv r2,'h0001 ;
080d   0001
080e   330e   xor r3,r3 ;
080f   212b   theme2_1: strpi r2,p1 ;
0810   312b   strpi r3,p1 ;
0811   0215   shl l,r2 ;
0812   1315   shl k,r3 ;
0813   0411   dec r4 ;
0814   9037   bra nz,tloop1 ;
0815   fff0
0816   0039   jmp tx_prmt ;
0817   038d
0818   003b   t_usaflag: jsr resetcolor ;
0819   06d2
081a   003b   jsr setcolor1 ;
081b   0643
081c   003b   jsr savecolor ;
081d   06bb
081e   003b   jsr setcolor7 ;
081f   068f
0820   003b   jsr savecolor ;
0821   06bb
0822   003b   jsr setcolor4 ;
0823   0669
0824   003b   jsr savecolor ;
0825   06bb
0826   0039   jmp theme0 ;
0827   078c
0828   003b   t_ireflag: jsr resetcolor ;
0829   06d2
082a   012e   ldpv p1,colorset ;
082b   1cdf
082c   0221   ldrv r2,'h00FF ;
082d   00ff
082e   0321   ldrv r3,'h0030 ;
082f   0030
0830   212b   strpi r2,p1 ;
0831   312b   strpi r3,p1 ;
0832   0221   ldrv r2,'hFFFF ;
0833   ffff
0834   0321   ldrv r3,'h00FF ;
0835   00ff
0836   212b   strpi r2,p1 ;
0837   312b   strpi r3,p1 ;
0838   0221   ldrv r2,'h0000 ;
0839   0000
083a   0321   ldrv r3,'h00FF ;
083b   00ff
083c   212b   strpi r2,p1 ;
083d   312b   strpi r3,p1 ;
083e   0121   ldrv r1,3 ;
083f   0003
0840   1028   str r1,colorcnt ;
0841   1cb7
0842   0039   jmp theme0 ;
0843   078c
0844   003b   t_argflag: jsr resetcolor ;
0845   06d2
0846   003b   jsr setcolor4 ;
0847   0669
0848   003b   jsr savecolor ;
0849   06bb
084a   003b   jsr setcolor7 ;
084b   068f
084c   003b   jsr savecolor ;
084d   06bb
084e   003b   jsr setcolor4 ;
084f   0669
0850   003b   jsr savecolor ;
0851   06bb
0852   0039   jmp theme0 ;
0853   078c
0854   003b   t_engflag: jsr resetcolor ;
0855   06d2
0856   003b   jsr setcolor1 ;
0857   0643
0858   003b   jsr savecolor ;
0859   06bb
085a   003b   jsr setcolor7 ;
085b   068f
085c   003b   jsr savecolor ;
085d   06bb
085e   003b   jsr setcolor1 ;
085f   0643
0860   003b   jsr savecolor ;
0861   06bb
0862   0039   jmp theme0 ;
0863   078c
0864   003b   t_itaflag: jsr resetcolor ;
0865   06d2
0866   003b   jsr setcolor2 ;
0867   064f
0868   003b   jsr savecolor ;
0869   06bb
086a   003b   jsr setcolor7 ;
086b   068f
086c   003b   jsr savecolor ;
086d   06bb
086e   003b   jsr setcolor1 ;
086f   0643
0870   003b   jsr savecolor ;
0871   06bb
0872   0039   jmp theme0 ;
0873   078c
0874   003b   jsr resetcolor ;
0875   06d2
0876   012e   ldpv p1,colorset ;
0877   1cdf
0878   0221   ldrv r2,'h00FF ;
0879   00ff
087a   0321   ldrv r3,'h0022 ;
087b   0022
087c   212b   strpi r2,p1 ;
087d   312b   strpi r3,p1 ;
087e   0121   ldrv r1,1 ;
087f   0001
0880   1028   str r1,colorcnt ;
0881   1cb7
0882   0039   jmp theme0 ;
0883   078c
0884   003b   jsr resetcolor ;
0885   06d2
0886   003b   jsr setcolor1 ;
0887   0643
0888   003b   jsr savecolor ;
0889   06bb
088a   003b   jsr setcolor2 ;
088b   064f
088c   003b   jsr savecolor ;
088d   06bb
088e   003b   jsr setcolor4 ;
088f   0669
0890   003b   jsr savecolor ;
0891   06bb
0892   003b   jsr setcolor3 ;
0893   065b
0894   003b   jsr savecolor ;
0895   06bb
0896   003b   jsr setcolor5 ;
0897   0675
0898   003b   jsr savecolor ;
0899   06bb
089a   003b   jsr setcolor6 ;
089b   0681
089c   003b   jsr savecolor ;
089d   06bb
089e   003b   jsr setcolor7 ;
089f   068f
08a0   003b   jsr savecolor ;
08a1   06bb
08a2   0039   jmp theme0 ;
08a3   078c
08a4   003b   jsr resetcolor ;
08a5   06d2
08a6   003b   jsr setcolor1 ;
08a7   0643
08a8   003b   jsr savecolor ;
08a9   06bb
08aa   003b   jsr setcolor2 ;
08ab   064f
08ac   003b   jsr savecolor ;
08ad   06bb
08ae   003b   jsr setcolor3 ;
08af   065b
08b0   003b   jsr savecolor ;
08b1   06bb
08b2   003b   jsr setcolor4 ;
08b3   0669
08b4   003b   jsr savecolor ;
08b5   06bb
08b6   003b   jsr setcolor5 ;
08b7   0675
08b8   003b   jsr savecolor ;
08b9   06bb
08ba   003b   jsr setcolor6 ;
08bb   0681
08bc   003b   jsr savecolor ;
08bd   06bb
08be   003b   jsr setcolor7 ;
08bf   068f
08c0   003b   jsr savecolor ;
08c1   06bb
08c2   0039   jmp theme0 ;
08c3   078c
08c4   003b   jsr resetcolor ;
08c5   06d2
08c6   003b   jsr setcolor1 ;
08c7   0643
08c8   003b   jsr savecolor ;
08c9   06bb
08ca   003b   jsr setcolor7 ;
08cb   068f
08cc   003b   jsr savecolor ;
08cd   06bb
08ce   003b   jsr setcolor2 ;
08cf   064f
08d0   003b   jsr savecolor ;
08d1   06bb
08d2   003b   jsr setcolor6 ;
08d3   0681
08d4   003b   jsr savecolor ;
08d5   06bb
08d6   003b   jsr setcolor3 ;
08d7   065b
08d8   003b   jsr savecolor ;
08d9   06bb
08da   003b   jsr setcolor5 ;
08db   0675
08dc   003b   jsr savecolor ;
08dd   06bb
08de   003b   jsr setcolor4 ;
08df   0669
08e0   003b   jsr savecolor ;
08e1   06bb
08e2   0039   jmp theme0 ;
08e3   078c
08e4   003b   jsr resetcolor ;
08e5   06d2
08e6   012e   ldpv p1,colorset ;
08e7   1cdf
08e8   0221   ldrv r2,'h0000 ;
08e9   0000
08ea   0321   ldrv r3,'h0011 ;
08eb   0011
08ec   212b   strpi r2,p1 ;
08ed   312b   strpi r3,p1 ;
08ee   0221   ldrv r2,'h0000 ;
08ef   0000
08f0   0321   ldrv r3,'h00ff ;
08f1   00ff
08f2   212b   strpi r2,p1 ;
08f3   312b   strpi r3,p1 ;
08f4   0221   ldrv r2,'h0000 ;
08f5   0000
08f6   0321   ldrv r3,'h00ff ;
08f7   00ff
08f8   212b   strpi r2,p1 ;
08f9   312b   strpi r3,p1 ;
08fa   0221   ldrv r2,'h0000 ;
08fb   0000
08fc   0321   ldrv r3,'h0011 ;
08fd   0011
08fe   212b   strpi r2,p1 ;
08ff   312b   strpi r3,p1 ;
0900   0121   ldrv r1,4 ;
0901   0004
0902   1028   str r1,colorcnt ;
0903   1cb7
0904   0039   jmp theme0 ;
0905   078c
0906   003b   jsr resetcolor ;
0907   06d2
0908   003b   jsr setcolor1 ;
0909   0643
090a   003b   jsr savecolor ;
090b   06bb
090c   0039   jmp theme0 ;
090d   078c
090e   003b   t_nycfc: jsr resetcolor ;
090f   06d2
0910   012e   ldpv p1,colorset ;
0911   1cdf
0912   0221   ldrv r2,'h6200 ;
0913   6200
0914   0321   ldrv r3,'h0000 ;
0915   0000
0916   212b   strpi r2,p1 ;
0917   312b   strpi r3,p1 ;
0918   0221   ldrv r2,'hFFFF ;
0919   ffff
091a   0321   ldrv r3,'h00FF ;
091b   00ff
091c   212b   strpi r2,p1 ;
091d   312b   strpi r3,p1 ;
091e   0221   ldrv r2,'h00FF ;
091f   00ff
0920   0321   ldrv r3,'h0022 ;
0921   0022
0922   212b   strpi r2,p1 ;
0923   312b   strpi r3,p1 ;
0924   0221   ldrv r2,'hFF00 ;
0925   ff00
0926   0321   ldrv r3,'h0000 ;
0927   0000
0928   212b   strpi r2,p1 ;
0929   312b   strpi r3,p1 ;
092a   0121   ldrv r1,4 ;
092b   0004
092c   1028   str r1,colorcnt ;
092d   1cb7
092e   0039   jmp theme0 ;
092f   078c
0930   0000   themef: nop ;
0931   003c   rts ; 
0932   0120   pattern0: ldr r1,numpixels ;
0933   1c9e
0934   0039   jmp rd_buffer ;
0935   0992
0936   0e39   p_blink: jmp fE,pattern1_2 ;
0937   0941
0938   0120   ldr r1,tmr1value ;
0939   1c4c
093a   1028   str r1,tmr1msec ;
093b   1c4b
093c   0e3e   uflag fE ;
093d   8139   jmp t1,pattern1_1 ;
093e   0943
093f   813e   uflag t1 ;
0940   823f   uport t2 ;
0941   0039   pattern1_2: jmp pattern1_3 ; 
0942   0945
0943   013e   pattern1_1: uflag f1 ;
0944   023f   uport f2 ;
0945   003c   pattern1_3: rts ;
0946   0e39   p_walk: jmp fE,pattern2_1 ;
0947   0969
0948   0120   ldr r1,tmr1value ;
0949   1c4c
094a   1028   str r1,tmr1msec ;
094b   1c4b
094c   0e3e   uflag fE ;
094d   8139   jmp t1,pattern2_2 ;
094e   096b
094f   813e   uflag t1 ; 
0950   023f   uport f2 ; 
0951   0220   ldr r2,numpixels ;
0952   1c9e
0953   0320   ldr r3,pselect1 ;
0954   1c50
0955   0420   ldr r4,pixelson ;
0956   1cc5
0957   0310   inc r3 ;
0958   3028   str r3,pselect1 ;
0959   1c50
095a   4301   add r3,r4 ;
095b   3028   str r3,pselect1e ;
095c   1c51
095d   0320   ldr r3,pselect1 ;
095e   1c50
095f   2312   cmpr r3,r2 ;
0960   e037   bra le,pattern2_1 ;
0961   0008
0962   0321   ldrv r3,1 ;
0963   0001
0964   3028   str r3,pselect1 ;
0965   1c50
0966   4301   pattern2_0: add r3,r4 ;
0967   3028   str r3,pselect1e ;
0968   1c51
0969   0039   pattern2_1: jmp wpattern ;
096a   0a04
096b   013e   pattern2_2: uflag f1 ; 
096c   0039   jmp wpattern ;
096d   0a04
096e   0e39   p_dimm: jmp fE,pattern3_2 ;
096f   0977
0970   0120   ldr r1,tmr1value ;
0971   1c4c
0972   1028   str r1,tmr1msec ;
0973   1c4b
0974   0e3e   uflag fE ;
0975   003b   jsr dimcounter ; 
0976   0a4d
0977   001f   pattern3_2: ldcv c0,RGBLENGTHH ; 
0978   000f
0979   022e   ldpv p2,APPREG_00 ; 
097a   0100
097b   0220   ldr r2,colormskrg ; 
097c   1cc7
097d   0320   ldr r3,colormskwb ;
097e   1cc8
097f   0120   ploop3: ldr r1,dimcnt ; 
0980   1c53
0981   1519   mvrr r1,r5 ;
0982   0517   shl4 r5 ;
0983   0517   shl4 r5 ; 
0984   510c   or r1,r5 ; 
0985   1619   mvrr r1,r6 ; 
0986   210a   and r1,r2 ; 
0987   1235   outpp r1,p2 ; 
0988   0230   incp p2 ;
0989   6119   mvrr r6,r1 ;
098a   310a   and r1,r3 ; 
098b   1235   outpp r1,p2 ; 
098c   0230   incp p2 ;
098d   0038   dcjnz c0,ploop3 ;
098e   097f
098f   003c   rts ; 
0990   0000   patternf: nop ;
0991   003c   rts ; 
0992   0120   rd_buffer: ldr r1,pcounter1 ;
0993   1c4f
0994   0520   ldr r5,numpixels ;
0995   1c9e
0996   0620   rd_buffer0: ldr r6,walk_cnt ;
0997   1c4d
0998   6101   add r1,r6 ;
0999   1419   mvrr r1,r4 ;
099a   5105   sub r1,r5 ;
099b   3037   bra s,rd_buffer2 ;
099c   0003
099d   0037   bra rd_buffer3 ;
099e   0002
099f   4119   rd_buffer2: mvrr r4,r1 ;
09a0   0115   rd_buffer3: shl r1 ;
09a1   1219   mvrr r1,r2 ; 
09a2   092e   ldpv p9,APPREG_00 ; 
09a3   0100
09a4   022e   ldpv p2,buf_table ; 
09a5   1c9f
09a6   001f   ldcv c0,RGBLENGTHH ; 
09a7   000f
09a8   0a20   ldr ra,walk_on ; 
09a9   1c4e
09aa   aa0c   or ra,ra ; 
09ab   1037   bra z,rd_bufferx ;
09ac   0049
09ad   ee14   cmprp rE,pE ; 
09ae   5037   bra ge,rd_bufferx ;
09af   0046
09b0   0e2e   ldpv pE,'h0000 ;
09b1   0000
09b2   0a20   ldr ra,read_mode ;
09b3   1cd5
09b4   aa13   cmprv ra,0 ; 
09b5   0000
09b6   1037   bra z,rd_buffup ;
09b7   000d
09b8   aa13   cmprv ra,1 ; 
09b9   0001
09ba   1037   bra z,rd_buffdn ;
09bb   0011
09bc   aa13   cmprv ra,2 ; 
09bd   0002
09be   1037   bra z,rd_buffud ;
09bf   0016
09c0   aa13   cmprv ra,3 ; 
09c1   0003
09c2   1037   bra z,rd_buffbnk ;
09c3   0026
09c4   660c   rd_buffup: or r6,r6 ; 
09c5   9037   bra nz,rd_buffup1 ;
09c6   0003
09c7   0620   ldr r6,numpixels ;
09c8   1c9e
09c9   0611   rd_buffup1: dec r6 ;
09ca   0037   bra rd_buffwc1 ;
09cb   0028
09cc   5612   rd_buffdn: cmpr r6,r5 ; 
09cd   5037   bra ge,rd_buffdn1 ;
09ce   0004
09cf   0610   inc r6 ;
09d0   0037   bra rd_buffwc1 ;
09d1   0022
09d2   660e   rd_buffdn1: xor r6,r6 ;
09d3   0037   bra rd_buffwc1 ;
09d4   001f
09d5   8139   rd_buffud: jmp t1,rd_buffud0 ; 
09d6   09e0
09d7   660c   or r6,r6 ; 
09d8   9037   bra nz,rd_buffud1 ;
09d9   0004
09da   813e   uflag t1 ;
09db   0037   bra rd_buffwc1 ;
09dc   0017
09dd   0611   rd_buffud1: dec r6 ;
09de   0037   bra rd_buffwc1 ;
09df   0014
09e0   5612   rd_buffud0: cmpr r6,r5 ; 
09e1   5037   bra ge,rd_buffud2 ;
09e2   0004
09e3   0610   inc r6 ;
09e4   0037   bra rd_buffwc1 ;
09e5   000e
09e6   013e   rd_buffud2: uflag f1 ;
09e7   0037   bra rd_buffwc1 ;
09e8   000b
09e9   8139   rd_buffbnk: jmp t1,rd_buffbnk3 ;
09ea   09ef
09eb   813e   uflag t1 ;
09ec   823f   uport t2 ; 
09ed   0037   bra rd_buffend ; 
09ee   0015
09ef   013e   rd_buffbnk3:uflag f1 ;
09f0   023f   uport f2 ; 
09f1   0037   bra rd_buffend ; 
09f2   0011
09f3   6028   rd_buffwc1: str r6,walk_cnt ;
09f4   1c4d
09f5   2722   rd_bufferx: ldrp r7,p2 ; 
09f6   711a   mvrp r7,p1 ; 
09f7   0230   incp p2 ; 
09f8   1104   addrp r1,p1 ;
09f9   111a   mvrp r1,p1 ;
09fa   1124   ldrpi r1,p1 ;
09fb   1935   outpp r1,p9 ; 
09fc   0930   incp p9 ;
09fd   1122   ldrp r1,p1 ;
09fe   1935   outpp r1,p9 ; 
09ff   0930   incp p9 ; 
0a00   2119   mvrr r2,r1 ; 
0a01   0038   dcjnz c0,rd_bufferx ; 
0a02   09f5
0a03   003c   rd_buffend: rts ;
0a04   0220   wpattern: ldr r2,pselect1 ;
0a05   1c50
0a06   0320   ldr r3,pselect1e ;
0a07   1c51
0a08   0420   ldr r4,pcounter1 ;
0a09   1c4f
0a0a   0520   ldr r5,numpixels ;
0a0b   1c9e
0a0c   3619   mvrr r3,r6 ; 
0a0d   5605   sub r6,r5 ; 
0a0e   3037   bra s,wpattern_chk ; 
0a0f   0004
0a10   6412   cmpr r4,r6 ;
0a11   e037   bra le,wpattern_0 ; 
0a12   000a
0a13   5412   cmpr r4,r5 ;
0a14   6037   bra gt,wpattern_0 ; 
0a15   0007
0a16   2412   cmpr r4,r2 ; 
0a17   d037   bra lt,wpattern_3 ; 
0a18   0011
0a19   3412   cmpr r4,r3 ; 
0a1a   5037   bra ge,wpattern_3 ; 
0a1b   000e
0a1c   001f   wpattern_0: ldcv c0,RGBLENGTHF ; 
0a1d   003f
0a1e   012e   ldpv p1,rgbtab ; 
0a1f   1c57
0a20   022e   ldpv p2,APPREG_00 ; 
0a21   0100
0a22   1124   wloop: ldrpi r1,p1 ; 
0a23   1235   outpp r1,p2 ; 
0a24   0230   incp p2 ;
0a25   0038   dcjnz c0,wloop ;
0a26   0a22
0a27   0039   jmp wpattern_2 ;
0a28   0a4c
0a29   8439   wpattern_3: jmp t4,wpattern4 ;
0a2a   0a36
0a2b   110e   xor r1,r1 ; 
0a2c   001f   ldcv c0,RGBLENGTHF ; 
0a2d   003f
0a2e   022e   ldpv p2,APPREG_00 ;
0a2f   0100
0a30   1235   wloop1: outpp r1,p2 ; 
0a31   0230   incp p2 ;
0a32   0038   dcjnz c0,wloop1 ; 
0a33   0a30
0a34   0039   jmp wpattern_2 ;
0a35   0a4c
0a36   001f   ldcv c0,RGBLENGTH ; 
0a37   001f
0a38   012e   ldpv p1,rgbtab_bg ;
0a39   1c77
0a3a   022e   ldpv p2,APPREG_00 ;
0a3b   0100
0a3c   1124   wloop2f: ldrpi r1,p1 ; 
0a3d   1235   outpp r1,p2 ; 
0a3e   0230   incp p2 ;
0a3f   0038   dcjnz c0,wloop2f ; 
0a40   0a3c
0a41   001f   ldcv c0,RGBLENGTH ;
0a42   001f
0a43   012e   ldpv p1,rgbtab_bg ; 
0a44   1c77
0a45   022e   ldpv p2,APPREG_10 ;
0a46   0120
0a47   1124   wloop2b: ldrpi r1,p1 ; 
0a48   1235   outpp r1,p2 ; 
0a49   0230   incp p2 ;
0a4a   0038   dcjnz c0,wloop2b ; 
0a4b   0a47
0a4c   003c   wpattern_2: rts ;
0a4d   0120   dimcounter: ldr r1,dimcnt ;
0a4e   1c53
0a4f   0220   ldr r2,dimflg ;
0a50   1c54
0a51   0320   ldr r3,dimsteps ;
0a52   1cc6
0a53   0420   ldr r4,intensity ;
0a54   1cbc
0a55   040b   andv r4,'h00FF ;
0a56   00ff
0a57   2213   cmprv r2,0 ;
0a58   0000
0a59   1037   bra z,addvalue ;
0a5a   0008
0a5b   3105   subvalue: sub r1,r3 ;
0a5c   b037   bra ns,keepit ;
0a5d   000c
0a5e   110e   xor r1,r1 ;
0a5f   220e   xor r2,r2 ;
0a60   0037   bra keepit ;
0a61   0008
0a62   3101   addvalue: add r1,r3 ;
0a63   4112   cmpr r1,r4 ;
0a64   d037   bra lt,keepit ;
0a65   0004
0a66   4119   mvrr r4,r1 ;
0a67   0221   ldrv r2,1 ;
0a68   0001
0a69   1028   keepit: str r1,dimcnt ;
0a6a   1c53
0a6b   2028   str r2,dimflg ;
0a6c   1c54
0a6d   003c   rts ; 
0a6e   660e   division: xor r6,r6 ; 
0a6f   4505   divstart: sub r5,r4 ;
0a70   3037   bra s,divend ;
0a71   0005
0a72   5319   mvrr r5,r3 ; 
0a73   0610   inc r6 ;
0a74   0037   bra divstart ;
0a75   fffa
0a76   003c   divend: rts ;
0a77   5513   monthchk: cmprv r5,2 ; 
0a78   0002
0a79   9037   bra ne,monthchk0 ; 
0a7a   0012
0a7b   6919   mvrr r6,r9 ;
0a7c   090b   andv r9,'h00ff ;
0a7d   00ff
0a7e   1037   bra z,month28 ; 
0a7f   0009
0a80   090b   andv r9,'h0003 ; 
0a81   0003
0a82   9037   bra nz,month28 ; 
0a83   0005
0a84   0821   month29: ldrv r8,29 ;
0a85   001d
0a86   0037   bra monthchkend ; 
0a87   001b
0a88   0821   month28: ldrv r8,28 ;
0a89   001c
0a8a   0037   bra monthchkend ;
0a8b   0017
0a8c   0541   monthchk0: bitv r5,8 ; 
0a8d   0008
0a8e   9037   bra nz,monthchk1 ;
0a8f   000d
0a90   0541   bitv r5,1 ; 
0a91   0001
0a92   1037   bra z,month30 ;
0a93   0005
0a94   0821   month31: ldrv r8,31 ;
0a95   001f
0a96   0037   bra monthchkend ;
0a97   000b
0a98   0821   month30: ldrv r8,30 ;
0a99   001e
0a9a   0037   bra monthchkend ;
0a9b   0007
0a9c   0541   monthchk1: bitv r5,1 ; 
0a9d   0001
0a9e   1037   bra z,month31 ;
0a9f   fff5
0aa0   0037   bra month30 ;
0aa1   fff7
0aa2   003c   rts ; 
0aa3   883f   hw_irq1: uport t8 ;
0aa4   0120   ldr r1,pcounter1 ; 
0aa5   1c4f
0aa6   0110   inc r1;
0aa7   1028   str r1,pcounter1 ; 
0aa8   1c4f
0aa9   883e   uflag t8 ;
0aaa   083f   uport f8 ;
0aab   003d   rti ; 
0aac   893f   hw_irq2: uport t9 ;
0aad   110e   xor r1,r1 ; 
0aae   1028   str r1,pcounter1 ; 
0aaf   1c4f
0ab0   893e   uflag t9 ;
0ab1   093f   hw_irq2_1: uport f9 ;
0ab2   003d   rti ; 
0ab3   0120   hw_irq3: ldr r1,tmr1msec ;
0ab4   1c4b
0ab5   110c   or r1,r1 ;
0ab6   1037   bra z,hw_irq3_1 ;
0ab7   0006
0ab8   0111   dec r1 ;
0ab9   1028   str r1,tmr1msec ;
0aba   1c4b
0abb   0037   bra hw_irq3_2 ;
0abc   0002
0abd   8e3e   hw_irq3_1: uflag tE ; 
0abe   003d   hw_irq3_2: rti ;
0abf   0220   hw_irq4: ldr r2,tmr1min ; 
0ac0   1cd3
0ac1   0320   ldr r3,tmr1hour ; 
0ac2   1cd2
0ac3   0420   ldr r4,tmr1date ; 
0ac4   1cd1
0ac5   4719   mvrr r4,r7 ; 
0ac6   0520   ldr r5,tmr1month ; 
0ac7   1cd0
0ac8   0620   ldr r6,tmr1year ; 
0ac9   1ccf
0aca   0120   ldr r1,tmr1sec ; 
0acb   1cd4
0acc   0110   inc r1 ;
0acd   1113   cmprv r1,60 ; 
0ace   003c
0acf   d037   bra lt,hw_irq4_1 ;
0ad0   0038
0ad1   110e   xor r1,r1 ;
0ad2   0210   inc r2 ;
0ad3   2213   cmprv r2,60 ; 
0ad4   003c
0ad5   d037   bra lt,hw_irq4_2 ;
0ad6   0030
0ad7   220e   xor r2,r2 ;
0ad8   8a3e   uflag tA ; 
0ad9   0310   inc r3 ;
0ada   3313   cmprv r3,24 ; 
0adb   0018
0adc   d037   bra lt,hw_irq4_3 ;
0add   0027
0ade   330e   xor r3,r3 ;
0adf   040b   andv r4,'h00ff ;
0ae0   00ff
0ae1   070b   andv r7,'hff00 ;
0ae2   ff00
0ae3   0718   shr4 r7 ;
0ae4   0718   shr4 r7 ;
0ae5   0710   inc r7 ;
0ae6   7713   cmprv r7,7 ; 
0ae7   0007
0ae8   d037   bra lt,hw_irq4_6 ;
0ae9   0002
0aea   770e   xor r7,r7 ; 
0aeb   0717   hw_irq4_6: shl4 r7 ;
0aec   0717   shl4 r7 ;
0aed   0410   inc r4 ; 
0aee   003b   jsr monthchk ; 
0aef   0a77
0af0   8412   cmpr r4,r8 ; 
0af1   e037   bra le,hw_irq4_4 ;
0af2   000f
0af3   0421   ldrv r4,1 ;
0af4   0001
0af5   0510   inc r5 ;
0af6   5513   cmprv r5,12 ; 
0af7   000c
0af8   e037   bra le,hw_irq4_5 ;
0af9   0006
0afa   0521   ldrv r5,1 ; 
0afb   0001
0afc   0610   inc r6 ;
0afd   6028   str r6,tmr1year ;
0afe   1ccf
0aff   5028   hw_irq4_5: str r5,tmr1month ;
0b00   1cd0
0b01   740c   hw_irq4_4: or r4,r7 ;
0b02   4028   str r4,tmr1date ;
0b03   1cd1
0b04   3028   hw_irq4_3: str r3,tmr1hour ;
0b05   1cd2
0b06   2028   hw_irq4_2: str r2,tmr1min ;
0b07   1cd3
0b08   1028   hw_irq4_1: str r1,tmr1sec ;
0b09   1cd4
0b0a   003d   rti ; 
0b0b   003d   sw_irq1: rti ;
0b0c   001f   monthtab: dw 31,28,31,30,31,30,31,31,30,31,30,31;
0b0d   001c
0b0e   001f
0b0f   001e
0b10   001f
0b11   001e
0b12   001f
0b13   001f
0b14   001e
0b15   001f
0b16   001e
0b17   001f
0b18   0053   version_m: dt "SW:040522-01-16Ch-100Pix-1c3b-2a69(3f00)";
0b19   0057
0b1a   003a
0b1b   0030
0b1c   0034
0b1d   0030
0b1e   0035
0b1f   0032
0b20   0032
0b21   002d
0b22   0030
0b23   0031
0b24   002d
0b25   0031
0b26   0036
0b27   0043
0b28   0068
0b29   002d
0b2a   0031
0b2b   0030
0b2c   0030
0b2d   0050
0b2e   0069
0b2f   0078
0b30   002d
0b31   0031
0b32   0063
0b33   0033
0b34   0062
0b35   002d
0b36   0032
0b37   0061
0b38   0036
0b39   0039
0b3a   0028
0b3b   0033
0b3c   0066
0b3d   0030
0b3e   0030
0b3f   0029
0b40   0000
0b41   0020   return_m: dt " Return to caller, press any key to display menu";
0b42   0052
0b43   0065
0b44   0074
0b45   0075
0b46   0072
0b47   006e
0b48   0020
0b49   0074
0b4a   006f
0b4b   0020
0b4c   0063
0b4d   0061
0b4e   006c
0b4f   006c
0b50   0065
0b51   0072
0b52   002c
0b53   0020
0b54   0070
0b55   0072
0b56   0065
0b57   0073
0b58   0073
0b59   0020
0b5a   0061
0b5b   006e
0b5c   0079
0b5d   0020
0b5e   006b
0b5f   0065
0b60   0079
0b61   0020
0b62   0074
0b63   006f
0b64   0020
0b65   0064
0b66   0069
0b67   0073
0b68   0070
0b69   006c
0b6a   0061
0b6b   0079
0b6c   0020
0b6d   006d
0b6e   0065
0b6f   006e
0b70   0075
0b71   0000
0b72   0020   memof_m: dt " Internal Memory Access";
0b73   0049
0b74   006e
0b75   0074
0b76   0065
0b77   0072
0b78   006e
0b79   0061
0b7a   006c
0b7b   0020
0b7c   004d
0b7d   0065
0b7e   006d
0b7f   006f
0b80   0072
0b81   0079
0b82   0020
0b83   0041
0b84   0063
0b85   0063
0b86   0065
0b87   0073
0b88   0073
0b89   0000
0b8a   0020   memon_m: dt " External Memory Access";
0b8b   0045
0b8c   0078
0b8d   0074
0b8e   0065
0b8f   0072
0b90   006e
0b91   0061
0b92   006c
0b93   0020
0b94   004d
0b95   0065
0b96   006d
0b97   006f
0b98   0072
0b99   0079
0b9a   0020
0b9b   0041
0b9c   0063
0b9d   0063
0b9e   0065
0b9f   0073
0ba0   0073
0ba1   0000
0ba2   0020   membyte_m: dt " Byte Memory Access";
0ba3   0042
0ba4   0079
0ba5   0074
0ba6   0065
0ba7   0020
0ba8   004d
0ba9   0065
0baa   006d
0bab   006f
0bac   0072
0bad   0079
0bae   0020
0baf   0041
0bb0   0063
0bb1   0063
0bb2   0065
0bb3   0073
0bb4   0073
0bb5   0000
0bb6   0020   memword_m: dt " Word Memory Access";
0bb7   0057
0bb8   006f
0bb9   0072
0bba   0064
0bbb   0020
0bbc   004d
0bbd   0065
0bbe   006d
0bbf   006f
0bc0   0072
0bc1   0079
0bc2   0020
0bc3   0041
0bc4   0063
0bc5   0063
0bc6   0065
0bc7   0073
0bc8   0073
0bc9   0000
0bca   0020   hexval4_m: dt " Enter value [RET] = ";
0bcb   0045
0bcc   006e
0bcd   0074
0bce   0065
0bcf   0072
0bd0   0020
0bd1   0076
0bd2   0061
0bd3   006c
0bd4   0075
0bd5   0065
0bd6   0020
0bd7   005b
0bd8   0052
0bd9   0045
0bda   0054
0bdb   005d
0bdc   0020
0bdd   003d
0bde   0020
0bdf   0000
0be0   0020   treset_m: dt " Target Reset done";
0be1   0054
0be2   0061
0be3   0072
0be4   0067
0be5   0065
0be6   0074
0be7   0020
0be8   0052
0be9   0065
0bea   0073
0beb   0065
0bec   0074
0bed   0020
0bee   0064
0bef   006f
0bf0   006e
0bf1   0065
0bf2   0000
0bf3   0020   clearr_m: dt " Control Register Cleared";
0bf4   0043
0bf5   006f
0bf6   006e
0bf7   0074
0bf8   0072
0bf9   006f
0bfa   006c
0bfb   0020
0bfc   0052
0bfd   0065
0bfe   0067
0bff   0069
0c00   0073
0c01   0074
0c02   0065
0c03   0072
0c04   0020
0c05   0043
0c06   006c
0c07   0065
0c08   0061
0c09   0072
0c0a   0065
0c0b   0064
0c0c   0000
0c0d   000d   promptx2: dw CR; 
0c0e   000a   dw LF; 
0c0f   000d   prompt: dw CR; 
0c10   000a   promptlf: dw LF; 
0c11   0000   dw NULL; 
0c12   000d   promptcr: dw CR; 
0c13   0000   dw NULL; 
0c14   0001   h2btab: dw 'h0001,'h0002,'h0004,'h0008 ;
0c15   0002
0c16   0004
0c17   0008
0c18   0010   dw 'h0010,'h0020,'h0040,'h0080 ;
0c19   0020
0c1a   0040
0c1b   0080
0c1c   0100   dw 'h0100,'h0200,'h0400,'h0800 ;
0c1d   0200
0c1e   0400
0c1f   0800
0c20   1000   dw 'h1000,'h2000,'h4000,'h8000 ;
0c21   2000
0c22   4000
0c23   8000
0c24   001b   cls_m: dw ESC ; 
0c25   005b   dt "[2J" ; 
0c26   0032
0c27   004a
0c28   0000
0c29   0000   dw NULL ; 
0c2a   001b   chome_m: dw ESC ; 
0c2b   005b   dt "[H" ; 
0c2c   0048
0c2d   0000
0c2e   0000   dw NULL ; 
0c2f   0064   kpst00: dw "d" ,"J" , d_debug, kpst10; 
0c30   004a
0c31   00e7
0c32   0c5f
0c33   0073   dw "s" ,"J" , d_sysset, kpst30; 
0c34   004a
0c35   00e1
0c36   0cc7
0c37   0061   dw "a" ,"J" , d_appset, kpst40; 
0c38   004a
0c39   00db
0c3a   0d27
0c3b   0076   dw "v" ,"J" , d_prgver, kpst00; 
0c3c   004a
0c3d   009f
0c3e   0c2f
0c3f   004c   dw "L" ,"J" , BOOT_ADDR,kpst00; 
0c40   004a
0c41   3f00
0c42   0c2f
0c43   0045   dw "E" ,"J" , echo_on, kpst00; 
0c44   004a
0c45   0095
0c46   0c2f
0c47   0065   dw "e" ,"J" , echo_off, kpst00; 
0c48   004a
0c49   009a
0c4a   0c2f
0c4b   0043   dw "C" ,"J" , enbscreen,kpst00; 
0c4c   004a
0c4d   00c2
0c4e   0c2f
0c4f   0063   dw "c" ,"J" , disscreen,kpst00; 
0c50   004a
0c51   00c4
0c52   0c2f
0c53   0049   dw "I" ,"J" , irq_set, kpst00; 
0c54   004a
0c55   053a
0c56   0c2f
0c57   006b   dw "k" ,"J" , d_rtcval, kpst00; 
0c58   004a
0c59   00ad
0c5a   0c2f
0c5b   0000   dw NULL ,"J" , d_menu, kpst00; 
0c5c   004a
0c5d   00d5
0c5e   0c2f
0c5f   0041   kpst10: dw "A" ,"J" , d_mema, kpst10; 
0c60   004a
0c61   0113
0c62   0c5f
0c63   0042   dw "B" ,"J" , d_memb, kpst10; 
0c64   004a
0c65   012d
0c66   0c5f
0c67   0050   dw "P" ,"J", d_pagenum,kpst10; 
0c68   004a
0c69   06f7
0c6a   0c5f
0c6b   0064   dw "d" ,"J" , memdump, kpst10; 
0c6c   004a
0c6d   0270
0c6e   0c5f
0c6f   006e   dw "n" ,"J" , memnext, kpst10; 
0c70   004a
0c71   0269
0c72   0c5f
0c73   0066   dw "f" ,"J" , memfill, kpst10; 
0c74   004a
0c75   02e4
0c76   0c5f
0c77   006c   dw "l" ,"J" , memlen, kpst10; 
0c78   004a
0c79   02d7
0c7a   0c5f
0c7b   006d   dw "m" ,"S" , s_bitop, wpst01; 
0c7c   0053
0c7d   0150
0c7e   0db7
0c7f   0077   dw "w" ,"S" , s_bitop, wpst01; 
0c80   0053
0c81   0150
0c82   0db7
0c83   0073   dw "s" ,"S" , s_bitop wpst01; 
0c84   0053
0c85   0150
0c86   0db7
0c87   0063   dw "c" ,"S" , s_bitop, wpst01; 
0c88   0053
0c89   0150
0c8a   0db7
0c8b   0074   dw "t" ,"S" , s_bitop, wpst01; 
0c8c   0053
0c8d   0150
0c8e   0db7
0c8f   0069   dw "i" ,"S" , s_bitop, wpst01; 
0c90   0053
0c91   0150
0c92   0db7
0c93   0061   dw "a" ,"S" , s_bitop, wpst01; 
0c94   0053
0c95   0150
0c96   0db7
0c97   006f   dw "o" ,"S" , s_bitop, wpst01; 
0c98   0053
0c99   0150
0c9a   0db7
0c9b   0065   dw "e" ,"S" , s_bitop, wpst01; 
0c9c   0053
0c9d   0150
0c9e   0db7
0c9f   0062   dw "b" ,"J" , d_base, kpst10; 
0ca0   004a
0ca1   0140
0ca2   0c5f
0ca3   0072   dw "r" ,"J" , d_aregs, kpst10; 
0ca4   004a
0ca5   00fa
0ca6   0c5f
0ca7   0076   dw "v" ,"J" , vardump, kpst10; 
0ca8   004a
0ca9   02bd
0caa   0c5f
0cab   0068   dw "h" ,"J" , d_help, kpst10; 
0cac   004a
0cad   00ee
0cae   0c5f
0caf   0078   dw "x" ,"J" , d_menu, kpst00; 
0cb0   004a
0cb1   00d5
0cb2   0c2f
0cb3   0020   dw " " ,"J" , d_debug, kpst10;
0cb4   004a
0cb5   00e7
0cb6   0c5f
0cb7   0000   dw NULL ,"J" , d_nothing,kpst10;
0cb8   004a
0cb9   014f
0cba   0c5f
0cbb   0068   kpst20: dw "h" ,"J" , d_help, kpst20; 
0cbc   004a
0cbd   00ee
0cbe   0cbb
0cbf   0078   dw "x" ,"J" , d_menu, kpst00; 
0cc0   004a
0cc1   00d5
0cc2   0c2f
0cc3   0000   dw NULL ,"J" , d_help, kpst20; 
0cc4   004a
0cc5   00ee
0cc6   0cbb
0cc7   006e   kpst30: dw "n" ,"J", d_pixels, kpst30; 
0cc8   004a
0cc9   054b
0cca   0cc7
0ccb   006c   dw "l" ,"J", setarst, kpst30; 
0ccc   004a
0ccd   04c1
0cce   0cc7
0ccf   0070   dw "p" ,"J", setaper, kpst30; 
0cd0   004a
0cd1   04cc
0cd2   0cc7
0cd3   0030   dw "0" ,"J", setapul0, kpst30; 
0cd4   004a
0cd5   04d7
0cd6   0cc7
0cd7   0031   dw "1" ,"J", setapul1, kpst30; 
0cd8   004a
0cd9   04e2
0cda   0cc7
0cdb   0038   dw "8" ,"J", d_fastpwm,kpst30; 
0cdc   004a
0cdd   04ed
0cde   0cc7
0cdf   0034   dw "4" ,"J", d_slowpwm,kpst30; 
0ce0   004a
0ce1   04fc
0ce2   0cc7
0ce3   0073   dw "s" ,"J", d_scpsrc, kpst30; 
0ce4   004a
0ce5   0495
0ce6   0cc7
0ce7   0074   dw "t" ,"J", d_trgsrc, kpst30; 
0ce8   004a
0ce9   04aa
0cea   0cc7
0ceb   0062   dw "b" ,"J", d_base, kpst30; 
0cec   004a
0ced   0140
0cee   0cc7
0cef   0072   dw "r" ,"J", d_aregs, kpst30; 
0cf0   004a
0cf1   00fa
0cf2   0cc7
0cf3   0077   dw "w" ,"S", s_bitop, wpst01; 
0cf4   0053
0cf5   0150
0cf6   0db7
0cf7   0052   dw "R" ,"J", d_target, kpst30; 
0cf8   004a
0cf9   050e
0cfa   0cc7
0cfb   0057   dw "W" ,"J", d_pcode, kpst30; 
0cfc   004a
0cfd   0528
0cfe   0cc7
0cff   0059   dw "Y" ,"J", setyear, kpst30; 
0d00   004a
0d01   044b
0d02   0cc7
0d03   004d   dw "M" ,"J", setmonth, kpst30; 
0d04   004a
0d05   0456
0d06   0cc7
0d07   0044   dw "D" ,"J", setdate, kpst30; 
0d08   004a
0d09   0461
0d0a   0cc7
0d0b   0048   dw "H" ,"J", sethour, kpst30; 
0d0c   004a
0d0d   046c
0d0e   0cc7
0d0f   0055   dw "U" ,"J", setmin, kpst30; 
0d10   004a
0d11   047c
0d12   0cc7
0d13   0053   dw "S" ,"J", setsec, kpst30; 
0d14   004a
0d15   048a
0d16   0cc7
0d17   006b   dw "k" ,"J", d_rtcval, kpst30; 
0d18   004a
0d19   00ad
0d1a   0cc7
0d1b   0076   dw "v" ,"J", vardump, kpst30; 
0d1c   004a
0d1d   02bd
0d1e   0cc7
0d1f   0078   dw "x" ,"J", d_menu, kpst00; 
0d20   004a
0d21   00d5
0d22   0c2f
0d23   0000   dw NULL,"J", d_sysset, kpst30; 
0d24   004a
0d25   00e1
0d26   0cc7
0d27   0061   kpst40: dw "a" ,"J", d_pixelson, kpst40; 
0d28   004a
0d29   055d
0d2a   0d27
0d2b   0073   dw "s" ,"J", d_colors, kpst40; 
0d2c   004a
0d2d   05b4
0d2e   0d27
0d2f   0063   dw "c" ,"J", d_channel, kpst40; 
0d30   004a
0d31   05e3
0d32   0d27
0d33   0069   dw "i" ,"J", d_colorin, kpst40; 
0d34   004a
0d35   05ee
0d36   0d27
0d37   0065   dw "e" ,"J", d_enbthe, kpst40; 
0d38   004a
0d39   05fe
0d3a   0d27
0d3b   0070   dw "p" ,"J", d_enbpat, kpst40; 
0d3c   004a
0d3d   061a
0d3e   0d27
0d3f   0064   dw "d" ,"J", d_runthem0, kpst40; 
0d40   004a
0d41   060f
0d42   0d27
0d43   0066   dw "f" ,"J", d_enbfg, kpst40; 
0d44   004a
0d45   0574
0d46   0d27
0d47   006d   dw "m" ,"J", d_bufmode, kpst40; 
0d48   004a
0d49   06ec
0d4a   0d27
0d4b   0062   dw "b" ,"J", d_enbbg, kpst40; 
0d4c   004a
0d4d   0579
0d4e   0d27
0d4f   0030   dw "0" ,"J", setcolor0, kpst40; 
0d50   004a
0d51   0639
0d52   0d27
0d53   0031   dw "1" ,"J", setcolor1, kpst40; 
0d54   004a
0d55   0643
0d56   0d27
0d57   0032   dw "2" ,"J", setcolor2, kpst40; 
0d58   004a
0d59   064f
0d5a   0d27
0d5b   0033   dw "3" ,"J", setcolor3, kpst40; 
0d5c   004a
0d5d   065b
0d5e   0d27
0d5f   0034   dw "4" ,"J", setcolor4, kpst40; 
0d60   004a
0d61   0669
0d62   0d27
0d63   0035   dw "5" ,"J", setcolor5, kpst40; 
0d64   004a
0d65   0675
0d66   0d27
0d67   0036   dw "6" ,"J", setcolor6, kpst40; 
0d68   004a
0d69   0681
0d6a   0d27
0d6b   0037   dw "7" ,"J", setcolor7, kpst40; 
0d6c   004a
0d6d   068f
0d6e   0d27
0d6f   0038   dw "8" ,"J", savecolor, kpst40; 
0d70   004a
0d71   06bb
0d72   0d27
0d73   0039   dw "9" ,"J", resetcolor, kpst40; 
0d74   004a
0d75   06d2
0d76   0d27
0d77   0072   dw "r" ,"J", d_readmode, kpst40; 
0d78   004a
0d79   0566
0d7a   0d27
0d7b   0074   dw "t" ,"J", d_timer1, kpst40; 
0d7c   004a
0d7d   0580
0d7e   0d27
0d7f   006a   dw "j" ,"J", d_dimstep, kpst40; 
0d80   004a
0d81   058f
0d82   0d27
0d83   006e   dw "n" ,"J", d_pixels, kpst40; 
0d84   004a
0d85   054b
0d86   0d27
0d87   0053   dw "S" ,"J", savebuf, kpst40; 
0d88   004a
0d89   0750
0d8a   0d27
0d8b   0052   dw "R" ,"J", restorebuf, kpst40; 
0d8c   004a
0d8d   076e
0d8e   0d27
0d8f   0050   dw "P" ,"J", d_pagenum, kpst40; 
0d90   004a
0d91   06f7
0d92   0d27
0d93   0056   dw "V" ,"J", d_buff_idx, kpst40; 
0d94   004a
0d95   0705
0d96   0d27
0d97   006b   dw "k" ,"J", d_rtcval, kpst40; 
0d98   004a
0d99   00ad
0d9a   0d27
0d9b   0076   dw "v" ,"J" , d_prgver, kpst40; 
0d9c   004a
0d9d   009f
0d9e   0d27
0d9f   0068   dw "h" ,"J", d_helpa, kpst40; 
0da0   004a
0da1   00f4
0da2   0d27
0da3   0078   dw "x" ,"J", d_menu, kpst00; 
0da4   004a
0da5   00d5
0da6   0c2f
0da7   0000   dw NULL,"J", d_appset, kpst40; 
0da8   004a
0da9   00db
0daa   0d27
0dab   000d   wpst00: dw CR ,"R" , a_quit, kpst00; 
0dac   0052
0dad   0265
0dae   0c2f
0daf   0071   dw "q" ,"R" , a_quit, kpst00; 
0db0   0052
0db1   0265
0db2   0c2f
0db3   0000   dw NULL ,"J" , a_regdat, wpst00; 
0db4   004a
0db5   01b3
0db6   0dab
0db7   002c   wpst01: dw "," ,"J" , a_setadd, wpst02; 
0db8   004a
0db9   0197
0dba   0dd3
0dbb   0020   dw " " ,"J" , a_setadd, wpst02; 
0dbc   004a
0dbd   0197
0dbe   0dd3
0dbf   002d   dw "-" ,"J" , a_setadd, wpst03; 
0dc0   004a
0dc1   0197
0dc2   0ddf
0dc3   006e   dw "n" ,"J" , a_setadd, wpst03; 
0dc4   004a
0dc5   0197
0dc6   0ddf
0dc7   000d   dw CR ,"R" , a_getval, kpst00; 
0dc8   0052
0dc9   0173
0dca   0c2f
0dcb   0071   dw "q" ,"R" , a_quit, kpst00; 
0dcc   0052
0dcd   0265
0dce   0c2f
0dcf   0000   dw NULL ,"J" , a_getadr, wpst01; 
0dd0   004a
0dd1   015e
0dd2   0db7
0dd3   000d   wpst02: dw CR ,"R" , a_wrval1, kpst00; 
0dd4   0052
0dd5   01b6
0dd6   0c2f
0dd7   0071   dw "q" ,"R" , a_quit, kpst00; 
0dd8   0052
0dd9   0265
0dda   0c2f
0ddb   0000   dw NULL ,"J" , a_regdat, wpst02; 
0ddc   004a
0ddd   01b3
0dde   0dd3
0ddf   000d   wpst03: dw CR ,"R" , a_wrval2, kpst00; 
0de0   0052
0de1   01bb
0de2   0c2f
0de3   0071   dw "q" ,"R" , a_quit, kpst00; 
0de4   0052
0de5   0265
0de6   0c2f
0de7   0000   dw NULL ,"J" , a_regdat, wpst03; 
0de8   004a
0de9   01b3
0dea   0ddf
0deb   007c   menu: dt "|Main Menu|";
0dec   004d
0ded   0061
0dee   0069
0def   006e
0df0   0020
0df1   004d
0df2   0065
0df3   006e
0df4   0075
0df5   007c
0df6   0000
0df7   0020   dt " a = application";
0df8   0061
0df9   0020
0dfa   003d
0dfb   0020
0dfc   0061
0dfd   0070
0dfe   0070
0dff   006c
0e00   0069
0e01   0063
0e02   0061
0e03   0074
0e04   0069
0e05   006f
0e06   006e
0e07   0000
0e08   0020   dt " s = system setup";
0e09   0073
0e0a   0020
0e0b   003d
0e0c   0020
0e0d   0073
0e0e   0079
0e0f   0073
0e10   0074
0e11   0065
0e12   006d
0e13   0020
0e14   0073
0e15   0065
0e16   0074
0e17   0075
0e18   0070
0e19   0000
0e1a   0020   dt " d = debug";
0e1b   0064
0e1c   0020
0e1d   003d
0e1e   0020
0e1f   0064
0e20   0065
0e21   0062
0e22   0075
0e23   0067
0e24   0000
0e25   0020   dt " v = version";
0e26   0076
0e27   0020
0e28   003d
0e29   0020
0e2a   0076
0e2b   0065
0e2c   0072
0e2d   0073
0e2e   0069
0e2f   006f
0e30   006e
0e31   0000
0e32   0020   dt " L = Load Program *.mem";
0e33   004c
0e34   0020
0e35   003d
0e36   0020
0e37   004c
0e38   006f
0e39   0061
0e3a   0064
0e3b   0020
0e3c   0050
0e3d   0072
0e3e   006f
0e3f   0067
0e40   0072
0e41   0061
0e42   006d
0e43   0020
0e44   002a
0e45   002e
0e46   006d
0e47   0065
0e48   006d
0e49   0000
0e4a   0020   dt " E = Echo ON";
0e4b   0045
0e4c   0020
0e4d   003d
0e4e   0020
0e4f   0045
0e50   0063
0e51   0068
0e52   006f
0e53   0020
0e54   004f
0e55   004e
0e56   0000
0e57   0020   dt " e = echo OFF";
0e58   0065
0e59   0020
0e5a   003d
0e5b   0020
0e5c   0065
0e5d   0063
0e5e   0068
0e5f   006f
0e60   0020
0e61   004f
0e62   0046
0e63   0046
0e64   0000
0e65   0020   dt " C = CLS ON";
0e66   0043
0e67   0020
0e68   003d
0e69   0020
0e6a   0043
0e6b   004c
0e6c   0053
0e6d   0020
0e6e   004f
0e6f   004e
0e70   0000
0e71   0020   dt " c = CLS OFF";
0e72   0063
0e73   0020
0e74   003d
0e75   0020
0e76   0043
0e77   004c
0e78   0053
0e79   0020
0e7a   004f
0e7b   0046
0e7c   0046
0e7d   0000
0e7e   0020   dt " I = IRQ mask";
0e7f   0049
0e80   0020
0e81   003d
0e82   0020
0e83   0049
0e84   0052
0e85   0051
0e86   0020
0e87   006d
0e88   0061
0e89   0073
0e8a   006b
0e8b   0000
0e8c   007c   dt "|||";
0e8d   007c
0e8e   007c
0e8f   0000
0e90   0003   dw ETX;
0e91   007c   debug_m: dt "|Memory/Register/IO Menu|";
0e92   004d
0e93   0065
0e94   006d
0e95   006f
0e96   0072
0e97   0079
0e98   002f
0e99   0052
0e9a   0065
0e9b   0067
0e9c   0069
0e9d   0073
0e9e   0074
0e9f   0065
0ea0   0072
0ea1   002f
0ea2   0049
0ea3   004f
0ea4   0020
0ea5   004d
0ea6   0065
0ea7   006e
0ea8   0075
0ea9   007c
0eaa   0000
0eab   0020   dt " A = memory Access mode";
0eac   0041
0ead   0020
0eae   003d
0eaf   0020
0eb0   006d
0eb1   0065
0eb2   006d
0eb3   006f
0eb4   0072
0eb5   0079
0eb6   0020
0eb7   0041
0eb8   0063
0eb9   0063
0eba   0065
0ebb   0073
0ebc   0073
0ebd   0020
0ebe   006d
0ebf   006f
0ec0   0064
0ec1   0065
0ec2   0000
0ec3   0020   dt " B = memory Byte mode";
0ec4   0042
0ec5   0020
0ec6   003d
0ec7   0020
0ec8   006d
0ec9   0065
0eca   006d
0ecb   006f
0ecc   0072
0ecd   0079
0ece   0020
0ecf   0042
0ed0   0079
0ed1   0074
0ed2   0065
0ed3   0020
0ed4   006d
0ed5   006f
0ed6   0064
0ed7   0065
0ed8   0000
0ed9   0020   dt " P = external memory Page";
0eda   0050
0edb   0020
0edc   003d
0edd   0020
0ede   0065
0edf   0078
0ee0   0074
0ee1   0065
0ee2   0072
0ee3   006e
0ee4   0061
0ee5   006c
0ee6   0020
0ee7   006d
0ee8   0065
0ee9   006d
0eea   006f
0eeb   0072
0eec   0079
0eed   0020
0eee   0050
0eef   0061
0ef0   0067
0ef1   0065
0ef2   0000
0ef3   0020   dt " m = Memory write/read";
0ef4   006d
0ef5   0020
0ef6   003d
0ef7   0020
0ef8   004d
0ef9   0065
0efa   006d
0efb   006f
0efc   0072
0efd   0079
0efe   0020
0eff   0077
0f00   0072
0f01   0069
0f02   0074
0f03   0065
0f04   002f
0f05   0072
0f06   0065
0f07   0061
0f08   0064
0f09   0000
0f0a   0020   dt " d = Memory dump";
0f0b   0064
0f0c   0020
0f0d   003d
0f0e   0020
0f0f   004d
0f10   0065
0f11   006d
0f12   006f
0f13   0072
0f14   0079
0f15   0020
0f16   0064
0f17   0075
0f18   006d
0f19   0070
0f1a   0000
0f1b   0020   dt " n = Next dump";
0f1c   006e
0f1d   0020
0f1e   003d
0f1f   0020
0f20   004e
0f21   0065
0f22   0078
0f23   0074
0f24   0020
0f25   0064
0f26   0075
0f27   006d
0f28   0070
0f29   0000
0f2a   0020   dt " f = fill memory address/value (AAAA,vvvv)";
0f2b   0066
0f2c   0020
0f2d   003d
0f2e   0020
0f2f   0066
0f30   0069
0f31   006c
0f32   006c
0f33   0020
0f34   006d
0f35   0065
0f36   006d
0f37   006f
0f38   0072
0f39   0079
0f3a   0020
0f3b   0061
0f3c   0064
0f3d   0064
0f3e   0072
0f3f   0065
0f40   0073
0f41   0073
0f42   002f
0f43   0076
0f44   0061
0f45   006c
0f46   0075
0f47   0065
0f48   0020
0f49   0028
0f4a   0041
0f4b   0041
0f4c   0041
0f4d   0041
0f4e   002c
0f4f   0076
0f50   0076
0f51   0076
0f52   0076
0f53   0029
0f54   0000
0f55   0020   dt " l = set length/increment (LLLL,iiii)";
0f56   006c
0f57   0020
0f58   003d
0f59   0020
0f5a   0073
0f5b   0065
0f5c   0074
0f5d   0020
0f5e   006c
0f5f   0065
0f60   006e
0f61   0067
0f62   0074
0f63   0068
0f64   002f
0f65   0069
0f66   006e
0f67   0063
0f68   0072
0f69   0065
0f6a   006d
0f6b   0065
0f6c   006e
0f6d   0074
0f6e   0020
0f6f   0028
0f70   004c
0f71   004c
0f72   004c
0f73   004c
0f74   002c
0f75   0069
0f76   0069
0f77   0069
0f78   0069
0f79   0029
0f7a   0000
0f7b   0000   dt "";
0f7c   0020   dt " w = Write/read port/register";
0f7d   0077
0f7e   0020
0f7f   003d
0f80   0020
0f81   0057
0f82   0072
0f83   0069
0f84   0074
0f85   0065
0f86   002f
0f87   0072
0f88   0065
0f89   0061
0f8a   0064
0f8b   0020
0f8c   0070
0f8d   006f
0f8e   0072
0f8f   0074
0f90   002f
0f91   0072
0f92   0065
0f93   0067
0f94   0069
0f95   0073
0f96   0074
0f97   0065
0f98   0072
0f99   0000
0f9a   0020   dt " s = Set reg bit";
0f9b   0073
0f9c   0020
0f9d   003d
0f9e   0020
0f9f   0053
0fa0   0065
0fa1   0074
0fa2   0020
0fa3   0072
0fa4   0065
0fa5   0067
0fa6   0020
0fa7   0062
0fa8   0069
0fa9   0074
0faa   0000
0fab   0020   dt " c = Clear reg bit";
0fac   0063
0fad   0020
0fae   003d
0faf   0020
0fb0   0043
0fb1   006c
0fb2   0065
0fb3   0061
0fb4   0072
0fb5   0020
0fb6   0072
0fb7   0065
0fb8   0067
0fb9   0020
0fba   0062
0fbb   0069
0fbc   0074
0fbd   0000
0fbe   0020   dt " t = Toggle reg bit";
0fbf   0074
0fc0   0020
0fc1   003d
0fc2   0020
0fc3   0054
0fc4   006f
0fc5   0067
0fc6   0067
0fc7   006c
0fc8   0065
0fc9   0020
0fca   0072
0fcb   0065
0fcc   0067
0fcd   0020
0fce   0062
0fcf   0069
0fd0   0074
0fd1   0000
0fd2   0020   dt " i = Pulse reg bit";
0fd3   0069
0fd4   0020
0fd5   003d
0fd6   0020
0fd7   0050
0fd8   0075
0fd9   006c
0fda   0073
0fdb   0065
0fdc   0020
0fdd   0072
0fde   0065
0fdf   0067
0fe0   0020
0fe1   0062
0fe2   0069
0fe3   0074
0fe4   0000
0fe5   0020   dt " a = and";
0fe6   0061
0fe7   0020
0fe8   003d
0fe9   0020
0fea   0061
0feb   006e
0fec   0064
0fed   0000
0fee   0020   dt " o = or";
0fef   006f
0ff0   0020
0ff1   003d
0ff2   0020
0ff3   006f
0ff4   0072
0ff5   0000
0ff6   0020   dt " e = xor";
0ff7   0065
0ff8   0020
0ff9   003d
0ffa   0020
0ffb   0078
0ffc   006f
0ffd   0072
0ffe   0000
0fff   0000   dt "";
1000   0020   dt " b = set Base I/O/Registers address";
1001   0062
1002   0020
1003   003d
1004   0020
1005   0073
1006   0065
1007   0074
1008   0020
1009   0042
100a   0061
100b   0073
100c   0065
100d   0020
100e   0049
100f   002f
1010   004f
1011   002f
1012   0052
1013   0065
1014   0067
1015   0069
1016   0073
1017   0074
1018   0065
1019   0072
101a   0073
101b   0020
101c   0061
101d   0064
101e   0064
101f   0072
1020   0065
1021   0073
1022   0073
1023   0000
1024   0020   dt " r = Read all Input ports/registers";
1025   0072
1026   0020
1027   003d
1028   0020
1029   0052
102a   0065
102b   0061
102c   0064
102d   0020
102e   0061
102f   006c
1030   006c
1031   0020
1032   0049
1033   006e
1034   0070
1035   0075
1036   0074
1037   0020
1038   0070
1039   006f
103a   0072
103b   0074
103c   0073
103d   002f
103e   0072
103f   0065
1040   0067
1041   0069
1042   0073
1043   0074
1044   0065
1045   0072
1046   0073
1047   0000
1048   0020   dt " v = display variables";
1049   0076
104a   0020
104b   003d
104c   0020
104d   0064
104e   0069
104f   0073
1050   0070
1051   006c
1052   0061
1053   0079
1054   0020
1055   0076
1056   0061
1057   0072
1058   0069
1059   0061
105a   0062
105b   006c
105c   0065
105d   0073
105e   0000
105f   0000   dt "";
1060   0020   dt " h = HELP";
1061   0068
1062   0020
1063   003d
1064   0020
1065   0048
1066   0045
1067   004c
1068   0050
1069   0000
106a   0020   dt " x = exit";
106b   0078
106c   0020
106d   003d
106e   0020
106f   0065
1070   0078
1071   0069
1072   0074
1073   0000
1074   007c   dt "||||";
1075   007c
1076   007c
1077   007c
1078   0000
1079   0003   dw ETX;
107a   007c   sysset_m:dt "|System Setup|";
107b   0053
107c   0079
107d   0073
107e   0074
107f   0065
1080   006d
1081   0020
1082   0053
1083   0065
1084   0074
1085   0075
1086   0070
1087   007c
1088   0000
1089   0020   dt " t = trigger source ( 0 to 3)";
108a   0074
108b   0020
108c   003d
108d   0020
108e   0074
108f   0072
1090   0069
1091   0067
1092   0067
1093   0065
1094   0072
1095   0020
1096   0073
1097   006f
1098   0075
1099   0072
109a   0063
109b   0065
109c   0020
109d   0028
109e   0020
109f   0030
10a0   0020
10a1   0074
10a2   006f
10a3   0020
10a4   0033
10a5   0029
10a6   0000
10a7   0020   dt " s = scope Source ( 0 to 3)";
10a8   0073
10a9   0020
10aa   003d
10ab   0020
10ac   0073
10ad   0063
10ae   006f
10af   0070
10b0   0065
10b1   0020
10b2   0053
10b3   006f
10b4   0075
10b5   0072
10b6   0063
10b7   0065
10b8   0020
10b9   0028
10ba   0020
10bb   0030
10bc   0020
10bd   0074
10be   006f
10bf   0020
10c0   0033
10c1   0029
10c2   0000
10c3   0000   dt "";
10c4   0020   dt " l = PWM reset";
10c5   006c
10c6   0020
10c7   003d
10c8   0020
10c9   0050
10ca   0057
10cb   004d
10cc   0020
10cd   0072
10ce   0065
10cf   0073
10d0   0065
10d1   0074
10d2   0000
10d3   0020   dt " p = PWM period";
10d4   0070
10d5   0020
10d6   003d
10d7   0020
10d8   0050
10d9   0057
10da   004d
10db   0020
10dc   0070
10dd   0065
10de   0072
10df   0069
10e0   006f
10e1   0064
10e2   0000
10e3   0020   dt " 0 = PWM pulse width code 0";
10e4   0030
10e5   0020
10e6   003d
10e7   0020
10e8   0050
10e9   0057
10ea   004d
10eb   0020
10ec   0070
10ed   0075
10ee   006c
10ef   0073
10f0   0065
10f1   0020
10f2   0077
10f3   0069
10f4   0064
10f5   0074
10f6   0068
10f7   0020
10f8   0063
10f9   006f
10fa   0064
10fb   0065
10fc   0020
10fd   0030
10fe   0000
10ff   0020   dt " 1 = PWM pulse width code 1";
1100   0031
1101   0020
1102   003d
1103   0020
1104   0050
1105   0057
1106   004d
1107   0020
1108   0070
1109   0075
110a   006c
110b   0073
110c   0065
110d   0020
110e   0077
110f   0069
1110   0064
1111   0074
1112   0068
1113   0020
1114   0063
1115   006f
1116   0064
1117   0065
1118   0020
1119   0031
111a   0000
111b   0020   dt " 8 = 800Khz PWM";
111c   0038
111d   0020
111e   003d
111f   0020
1120   0038
1121   0030
1122   0030
1123   004b
1124   0068
1125   007a
1126   0020
1127   0050
1128   0057
1129   004d
112a   0000
112b   0020   dt " 4 = 400Khz PWM";
112c   0034
112d   0020
112e   003d
112f   0020
1130   0034
1131   0030
1132   0030
1133   004b
1134   0068
1135   007a
1136   0020
1137   0050
1138   0057
1139   004d
113a   0000
113b   0000   dt "";
113c   0020   dt " b = set Base reg address";
113d   0062
113e   0020
113f   003d
1140   0020
1141   0073
1142   0065
1143   0074
1144   0020
1145   0042
1146   0061
1147   0073
1148   0065
1149   0020
114a   0072
114b   0065
114c   0067
114d   0020
114e   0061
114f   0064
1150   0064
1151   0072
1152   0065
1153   0073
1154   0073
1155   0000
1156   0020   dt " r = Read all registers";
1157   0072
1158   0020
1159   003d
115a   0020
115b   0052
115c   0065
115d   0061
115e   0064
115f   0020
1160   0061
1161   006c
1162   006c
1163   0020
1164   0072
1165   0065
1166   0067
1167   0069
1168   0073
1169   0074
116a   0065
116b   0072
116c   0073
116d   0000
116e   0020   dt " w = Write/read port/register";
116f   0077
1170   0020
1171   003d
1172   0020
1173   0057
1174   0072
1175   0069
1176   0074
1177   0065
1178   002f
1179   0072
117a   0065
117b   0061
117c   0064
117d   0020
117e   0070
117f   006f
1180   0072
1181   0074
1182   002f
1183   0072
1184   0065
1185   0067
1186   0069
1187   0073
1188   0074
1189   0065
118a   0072
118b   0000
118c   0020   dt " n = Number of Pixels";
118d   006e
118e   0020
118f   003d
1190   0020
1191   004e
1192   0075
1193   006d
1194   0062
1195   0065
1196   0072
1197   0020
1198   006f
1199   0066
119a   0020
119b   0050
119c   0069
119d   0078
119e   0065
119f   006c
11a0   0073
11a1   0000
11a2   0000   dt "";
11a3   0020   dt " Y = Year";
11a4   0059
11a5   0020
11a6   003d
11a7   0020
11a8   0059
11a9   0065
11aa   0061
11ab   0072
11ac   0000
11ad   0020   dt " M = Month";
11ae   004d
11af   0020
11b0   003d
11b1   0020
11b2   004d
11b3   006f
11b4   006e
11b5   0074
11b6   0068
11b7   0000
11b8   0020   dt " D = day/DATE";
11b9   0044
11ba   0020
11bb   003d
11bc   0020
11bd   0064
11be   0061
11bf   0079
11c0   002f
11c1   0044
11c2   0041
11c3   0054
11c4   0045
11c5   0000
11c6   0020   dt " H = Hour";
11c7   0048
11c8   0020
11c9   003d
11ca   0020
11cb   0048
11cc   006f
11cd   0075
11ce   0072
11cf   0000
11d0   0020   dt " U = minUte";
11d1   0055
11d2   0020
11d3   003d
11d4   0020
11d5   006d
11d6   0069
11d7   006e
11d8   0055
11d9   0074
11da   0065
11db   0000
11dc   0020   dt " S = Sec";
11dd   0053
11de   0020
11df   003d
11e0   0020
11e1   0053
11e2   0065
11e3   0063
11e4   0000
11e5   0020   dt " k = display clock ";
11e6   006b
11e7   0020
11e8   003d
11e9   0020
11ea   0064
11eb   0069
11ec   0073
11ed   0070
11ee   006c
11ef   0061
11f0   0079
11f1   0020
11f2   0063
11f3   006c
11f4   006f
11f5   0063
11f6   006b
11f7   0020
11f8   0000
11f9   0000   dt "";
11fa   0020   dt " R = target Reset";
11fb   0052
11fc   0020
11fd   003d
11fe   0020
11ff   0074
1200   0061
1201   0072
1202   0067
1203   0065
1204   0074
1205   0020
1206   0052
1207   0065
1208   0073
1209   0065
120a   0074
120b   0000
120c   0020   dt " W = Write protect (2 or 0)";
120d   0057
120e   0020
120f   003d
1210   0020
1211   0057
1212   0072
1213   0069
1214   0074
1215   0065
1216   0020
1217   0070
1218   0072
1219   006f
121a   0074
121b   0065
121c   0063
121d   0074
121e   0020
121f   0028
1220   0032
1221   0020
1222   006f
1223   0072
1224   0020
1225   0030
1226   0029
1227   0000
1228   0020   dt " v = display variables";
1229   0076
122a   0020
122b   003d
122c   0020
122d   0064
122e   0069
122f   0073
1230   0070
1231   006c
1232   0061
1233   0079
1234   0020
1235   0076
1236   0061
1237   0072
1238   0069
1239   0061
123a   0062
123b   006c
123c   0065
123d   0073
123e   0000
123f   0020   dt " x = exit";
1240   0078
1241   0020
1242   003d
1243   0020
1244   0065
1245   0078
1246   0069
1247   0074
1248   0000
1249   007c   dt "|||";
124a   007c
124b   007c
124c   0000
124d   0003   dw ETX;
124e   007c   appset_m:dt "|Application|";
124f   0041
1250   0070
1251   0070
1252   006c
1253   0069
1254   0063
1255   0061
1256   0074
1257   0069
1258   006f
1259   006e
125a   007c
125b   0000
125c   0020   dt " c = set Channel (0 to f)";
125d   0063
125e   0020
125f   003d
1260   0020
1261   0073
1262   0065
1263   0074
1264   0020
1265   0043
1266   0068
1267   0061
1268   006e
1269   006e
126a   0065
126b   006c
126c   0020
126d   0028
126e   0030
126f   0020
1270   0074
1271   006f
1272   0020
1273   0066
1274   0029
1275   0000
1276   0020   dt " f = select Foreground";
1277   0066
1278   0020
1279   003d
127a   0020
127b   0073
127c   0065
127d   006c
127e   0065
127f   0063
1280   0074
1281   0020
1282   0046
1283   006f
1284   0072
1285   0065
1286   0067
1287   0072
1288   006f
1289   0075
128a   006e
128b   0064
128c   0000
128d   0020   dt " b = select Background";
128e   0062
128f   0020
1290   003d
1291   0020
1292   0073
1293   0065
1294   006c
1295   0065
1296   0063
1297   0074
1298   0020
1299   0042
129a   0061
129b   0063
129c   006b
129d   0067
129e   0072
129f   006f
12a0   0075
12a1   006e
12a2   0064
12a3   0000
12a4   0020   dt " s = Set color value per channel";
12a5   0073
12a6   0020
12a7   003d
12a8   0020
12a9   0053
12aa   0065
12ab   0074
12ac   0020
12ad   0063
12ae   006f
12af   006c
12b0   006f
12b1   0072
12b2   0020
12b3   0076
12b4   0061
12b5   006c
12b6   0075
12b7   0065
12b8   0020
12b9   0070
12ba   0065
12bb   0072
12bc   0020
12bd   0063
12be   0068
12bf   0061
12c0   006e
12c1   006e
12c2   0065
12c3   006c
12c4   0000
12c5   0000   dt "";
12c6   0020   dt " p = Pattern";
12c7   0070
12c8   0020
12c9   003d
12ca   0020
12cb   0050
12cc   0061
12cd   0074
12ce   0074
12cf   0065
12d0   0072
12d1   006e
12d2   0000
12d3   0020   dt " e = thEme";
12d4   0065
12d5   0020
12d6   003d
12d7   0020
12d8   0074
12d9   0068
12da   0045
12db   006d
12dc   0065
12dd   0000
12de   0020   dt " d = Display theme";
12df   0064
12e0   0020
12e1   003d
12e2   0020
12e3   0044
12e4   0069
12e5   0073
12e6   0070
12e7   006c
12e8   0061
12e9   0079
12ea   0020
12eb   0074
12ec   0068
12ed   0065
12ee   006d
12ef   0065
12f0   0000
12f1   0020   dt " m = theme Mode";
12f2   006d
12f3   0020
12f4   003d
12f5   0020
12f6   0074
12f7   0068
12f8   0065
12f9   006d
12fa   0065
12fb   0020
12fc   004d
12fd   006f
12fe   0064
12ff   0065
1300   0000
1301   0000   dt "";
1302   0020   dt " i = Intensity (0-7)";
1303   0069
1304   0020
1305   003d
1306   0020
1307   0049
1308   006e
1309   0074
130a   0065
130b   006e
130c   0073
130d   0069
130e   0074
130f   0079
1310   0020
1311   0028
1312   0030
1313   002d
1314   0037
1315   0029
1316   0000
1317   0020   dt " 0 = blk";
1318   0030
1319   0020
131a   003d
131b   0020
131c   0062
131d   006c
131e   006b
131f   0000
1320   0020   dt " 1 = red";
1321   0031
1322   0020
1323   003d
1324   0020
1325   0072
1326   0065
1327   0064
1328   0000
1329   0020   dt " 2 = grn";
132a   0032
132b   0020
132c   003d
132d   0020
132e   0067
132f   0072
1330   006e
1331   0000
1332   0020   dt " 3 = yel";
1333   0033
1334   0020
1335   003d
1336   0020
1337   0079
1338   0065
1339   006c
133a   0000
133b   0020   dt " 4 = blu";
133c   0034
133d   0020
133e   003d
133f   0020
1340   0062
1341   006c
1342   0075
1343   0000
1344   0020   dt " 5 = mag";
1345   0035
1346   0020
1347   003d
1348   0020
1349   006d
134a   0061
134b   0067
134c   0000
134d   0020   dt " 6 = cya";
134e   0036
134f   0020
1350   003d
1351   0020
1352   0063
1353   0079
1354   0061
1355   0000
1356   0020   dt " 7 = wht";
1357   0037
1358   0020
1359   003d
135a   0020
135b   0077
135c   0068
135d   0074
135e   0000
135f   0020   dt " 8 = update colorset queue";
1360   0038
1361   0020
1362   003d
1363   0020
1364   0075
1365   0070
1366   0064
1367   0061
1368   0074
1369   0065
136a   0020
136b   0063
136c   006f
136d   006c
136e   006f
136f   0072
1370   0073
1371   0065
1372   0074
1373   0020
1374   0071
1375   0075
1376   0065
1377   0075
1378   0065
1379   0000
137a   0020   dt " 9 = reset colorset queue";
137b   0039
137c   0020
137d   003d
137e   0020
137f   0072
1380   0065
1381   0073
1382   0065
1383   0074
1384   0020
1385   0063
1386   006f
1387   006c
1388   006f
1389   0072
138a   0073
138b   0065
138c   0074
138d   0020
138e   0071
138f   0075
1390   0065
1391   0075
1392   0065
1393   0000
1394   0000   dt "";
1395   0020   dt " a = active pixels";
1396   0061
1397   0020
1398   003d
1399   0020
139a   0061
139b   0063
139c   0074
139d   0069
139e   0076
139f   0065
13a0   0020
13a1   0070
13a2   0069
13a3   0078
13a4   0065
13a5   006c
13a6   0073
13a7   0000
13a8   0020   dt " r = read buffer mode";
13a9   0072
13aa   0020
13ab   003d
13ac   0020
13ad   0072
13ae   0065
13af   0061
13b0   0064
13b1   0020
13b2   0062
13b3   0075
13b4   0066
13b5   0066
13b6   0065
13b7   0072
13b8   0020
13b9   006d
13ba   006f
13bb   0064
13bc   0065
13bd   0000
13be   0020   dt " t = timer (blink/dim/walk)";
13bf   0074
13c0   0020
13c1   003d
13c2   0020
13c3   0074
13c4   0069
13c5   006d
13c6   0065
13c7   0072
13c8   0020
13c9   0028
13ca   0062
13cb   006c
13cc   0069
13cd   006e
13ce   006b
13cf   002f
13d0   0064
13d1   0069
13d2   006d
13d3   002f
13d4   0077
13d5   0061
13d6   006c
13d7   006b
13d8   0029
13d9   0000
13da   0020   dt " j = dimm steps";
13db   006a
13dc   0020
13dd   003d
13de   0020
13df   0064
13e0   0069
13e1   006d
13e2   006d
13e3   0020
13e4   0073
13e5   0074
13e6   0065
13e7   0070
13e8   0073
13e9   0000
13ea   0020   dt " n = Number of Pixels";
13eb   006e
13ec   0020
13ed   003d
13ee   0020
13ef   004e
13f0   0075
13f1   006d
13f2   0062
13f3   0065
13f4   0072
13f5   0020
13f6   006f
13f7   0066
13f8   0020
13f9   0050
13fa   0069
13fb   0078
13fc   0065
13fd   006c
13fe   0073
13ff   0000
1400   0000   dt "";
1401   0020   dt " S = Save channel to virtual channel";
1402   0053
1403   0020
1404   003d
1405   0020
1406   0053
1407   0061
1408   0076
1409   0065
140a   0020
140b   0063
140c   0068
140d   0061
140e   006e
140f   006e
1410   0065
1411   006c
1412   0020
1413   0074
1414   006f
1415   0020
1416   0076
1417   0069
1418   0072
1419   0074
141a   0075
141b   0061
141c   006c
141d   0020
141e   0063
141f   0068
1420   0061
1421   006e
1422   006e
1423   0065
1424   006c
1425   0000
1426   0020   dt " R = Restore virtual channel to channel";
1427   0052
1428   0020
1429   003d
142a   0020
142b   0052
142c   0065
142d   0073
142e   0074
142f   006f
1430   0072
1431   0065
1432   0020
1433   0076
1434   0069
1435   0072
1436   0074
1437   0075
1438   0061
1439   006c
143a   0020
143b   0063
143c   0068
143d   0061
143e   006e
143f   006e
1440   0065
1441   006c
1442   0020
1443   0074
1444   006f
1445   0020
1446   0063
1447   0068
1448   0061
1449   006e
144a   006e
144b   0065
144c   006c
144d   0000
144e   0020   dt " P = external memory Page";
144f   0050
1450   0020
1451   003d
1452   0020
1453   0065
1454   0078
1455   0074
1456   0065
1457   0072
1458   006e
1459   0061
145a   006c
145b   0020
145c   006d
145d   0065
145e   006d
145f   006f
1460   0072
1461   0079
1462   0020
1463   0050
1464   0061
1465   0067
1466   0065
1467   0000
1468   0020   dt " V = set Virtual channel, V=-1 then V=c";
1469   0056
146a   0020
146b   003d
146c   0020
146d   0073
146e   0065
146f   0074
1470   0020
1471   0056
1472   0069
1473   0072
1474   0074
1475   0075
1476   0061
1477   006c
1478   0020
1479   0063
147a   0068
147b   0061
147c   006e
147d   006e
147e   0065
147f   006c
1480   002c
1481   0020
1482   0056
1483   003d
1484   002d
1485   0031
1486   0020
1487   0074
1488   0068
1489   0065
148a   006e
148b   0020
148c   0056
148d   003d
148e   0063
148f   0000
1490   0000   dt "";
1491   0020   dt " k = display clock ";
1492   006b
1493   0020
1494   003d
1495   0020
1496   0064
1497   0069
1498   0073
1499   0070
149a   006c
149b   0061
149c   0079
149d   0020
149e   0063
149f   006c
14a0   006f
14a1   0063
14a2   006b
14a3   0020
14a4   0000
14a5   0020   dt " v = version";
14a6   0076
14a7   0020
14a8   003d
14a9   0020
14aa   0076
14ab   0065
14ac   0072
14ad   0073
14ae   0069
14af   006f
14b0   006e
14b1   0000
14b2   0020   dt " h = HELP";
14b3   0068
14b4   0020
14b5   003d
14b6   0020
14b7   0048
14b8   0045
14b9   004c
14ba   0050
14bb   0000
14bc   0020   dt " x = exit";
14bd   0078
14be   0020
14bf   003d
14c0   0020
14c1   0065
14c2   0078
14c3   0069
14c4   0074
14c5   0000
14c6   007c   dt "|||";
14c7   007c
14c8   007c
14c9   0000
14ca   0003   dw ETX;
14cb   007c   help_a: dt "| H E L P |";
14cc   0020
14cd   0048
14ce   0020
14cf   0045
14d0   0020
14d1   004c
14d2   0020
14d3   0050
14d4   0020
14d5   007c
14d6   0000
14d7   0020   dt " Space key will refresh the screen";
14d8   0053
14d9   0070
14da   0061
14db   0063
14dc   0065
14dd   0020
14de   006b
14df   0065
14e0   0079
14e1   0020
14e2   0077
14e3   0069
14e4   006c
14e5   006c
14e6   0020
14e7   0072
14e8   0065
14e9   0066
14ea   0072
14eb   0065
14ec   0073
14ed   0068
14ee   0020
14ef   0074
14f0   0068
14f1   0065
14f2   0020
14f3   0073
14f4   0063
14f5   0072
14f6   0065
14f7   0065
14f8   006e
14f9   0000
14fa   0020   dt " Enter x to exit (previous menu)";
14fb   0045
14fc   006e
14fd   0074
14fe   0065
14ff   0072
1500   0020
1501   0078
1502   0020
1503   0074
1504   006f
1505   0020
1506   0065
1507   0078
1508   0069
1509   0074
150a   0020
150b   0028
150c   0070
150d   0072
150e   0065
150f   0076
1510   0069
1511   006f
1512   0075
1513   0073
1514   0020
1515   006d
1516   0065
1517   006e
1518   0075
1519   0029
151a   0000
151b   0020   dt " Enter values in HEXADECIMAL (0-9, a-f)";
151c   0045
151d   006e
151e   0074
151f   0065
1520   0072
1521   0020
1522   0076
1523   0061
1524   006c
1525   0075
1526   0065
1527   0073
1528   0020
1529   0069
152a   006e
152b   0020
152c   0048
152d   0045
152e   0058
152f   0041
1530   0044
1531   0045
1532   0043
1533   0049
1534   004d
1535   0041
1536   004c
1537   0020
1538   0028
1539   0030
153a   002d
153b   0039
153c   002c
153d   0020
153e   0061
153f   002d
1540   0066
1541   0029
1542   0000
1543   0000   dt "";
1544   007c   dt "| Commands |";
1545   0020
1546   0043
1547   006f
1548   006d
1549   006d
154a   0061
154b   006e
154c   0064
154d   0073
154e   0020
154f   007c
1550   0000
1551   0020   dt " b = background color";
1552   0062
1553   0020
1554   003d
1555   0020
1556   0062
1557   0061
1558   0063
1559   006b
155a   0067
155b   0072
155c   006f
155d   0075
155e   006e
155f   0064
1560   0020
1561   0063
1562   006f
1563   006c
1564   006f
1565   0072
1566   0000
1567   0020   dt " c = channel strip (0 to f)";
1568   0063
1569   0020
156a   003d
156b   0020
156c   0063
156d   0068
156e   0061
156f   006e
1570   006e
1571   0065
1572   006c
1573   0020
1574   0073
1575   0074
1576   0072
1577   0069
1578   0070
1579   0020
157a   0028
157b   0030
157c   0020
157d   0074
157e   006f
157f   0020
1580   0066
1581   0029
1582   0000
1583   0020   dt " d = display buffer";
1584   0064
1585   0020
1586   003d
1587   0020
1588   0064
1589   0069
158a   0073
158b   0070
158c   006c
158d   0061
158e   0079
158f   0020
1590   0062
1591   0075
1592   0066
1593   0066
1594   0065
1595   0072
1596   0000
1597   0020   dt " f = foreground color";
1598   0066
1599   0020
159a   003d
159b   0020
159c   0066
159d   006f
159e   0072
159f   0065
15a0   0067
15a1   0072
15a2   006f
15a3   0075
15a4   006e
15a5   0064
15a6   0020
15a7   0063
15a8   006f
15a9   006c
15aa   006f
15ab   0072
15ac   0000
15ad   0000   dt "";
15ae   0020   dt " a = active walking/length pixels";
15af   0061
15b0   0020
15b1   003d
15b2   0020
15b3   0061
15b4   0063
15b5   0074
15b6   0069
15b7   0076
15b8   0065
15b9   0020
15ba   0077
15bb   0061
15bc   006c
15bd   006b
15be   0069
15bf   006e
15c0   0067
15c1   002f
15c2   006c
15c3   0065
15c4   006e
15c5   0067
15c6   0074
15c7   0068
15c8   0020
15c9   0070
15ca   0069
15cb   0078
15cc   0065
15cd   006c
15ce   0073
15cf   0000
15d0   0020   dt " r = read buffer mode, DN(0),UP(1),UD(2)";
15d1   0072
15d2   0020
15d3   003d
15d4   0020
15d5   0072
15d6   0065
15d7   0061
15d8   0064
15d9   0020
15da   0062
15db   0075
15dc   0066
15dd   0066
15de   0065
15df   0072
15e0   0020
15e1   006d
15e2   006f
15e3   0064
15e4   0065
15e5   002c
15e6   0020
15e7   0044
15e8   004e
15e9   0028
15ea   0030
15eb   0029
15ec   002c
15ed   0055
15ee   0050
15ef   0028
15f0   0031
15f1   0029
15f2   002c
15f3   0055
15f4   0044
15f5   0028
15f6   0032
15f7   0029
15f8   0000
15f9   0020   dt " t = timer for blink/dim/walk";
15fa   0074
15fb   0020
15fc   003d
15fd   0020
15fe   0074
15ff   0069
1600   006d
1601   0065
1602   0072
1603   0020
1604   0066
1605   006f
1606   0072
1607   0020
1608   0062
1609   006c
160a   0069
160b   006e
160c   006b
160d   002f
160e   0064
160f   0069
1610   006d
1611   002f
1612   0077
1613   0061
1614   006c
1615   006b
1616   0000
1617   0020   dt " j = dimm steps";
1618   006a
1619   0020
161a   003d
161b   0020
161c   0064
161d   0069
161e   006d
161f   006d
1620   0020
1621   0073
1622   0074
1623   0065
1624   0070
1625   0073
1626   0000
1627   0000   dt "";
1628   0020   dt " p = selects a pattern";
1629   0070
162a   0020
162b   003d
162c   0020
162d   0073
162e   0065
162f   006c
1630   0065
1631   0063
1632   0074
1633   0073
1634   0020
1635   0061
1636   0020
1637   0070
1638   0061
1639   0074
163a   0074
163b   0065
163c   0072
163d   006e
163e   0000
163f   0020   dt " p = 0 Walking Custom theme";
1640   0070
1641   0020
1642   003d
1643   0020
1644   0030
1645   0020
1646   0057
1647   0061
1648   006c
1649   006b
164a   0069
164b   006e
164c   0067
164d   0020
164e   0043
164f   0075
1650   0073
1651   0074
1652   006f
1653   006d
1654   0020
1655   0074
1656   0068
1657   0065
1658   006d
1659   0065
165a   0000
165b   0020   dt " p = 1 Blinking LED";
165c   0070
165d   0020
165e   003d
165f   0020
1660   0031
1661   0020
1662   0042
1663   006c
1664   0069
1665   006e
1666   006b
1667   0069
1668   006e
1669   0067
166a   0020
166b   004c
166c   0045
166d   0044
166e   0000
166f   0020   dt " p = 2 Walking LED";
1670   0070
1671   0020
1672   003d
1673   0020
1674   0032
1675   0020
1676   0057
1677   0061
1678   006c
1679   006b
167a   0069
167b   006e
167c   0067
167d   0020
167e   004c
167f   0045
1680   0044
1681   0000
1682   0020   dt " p = 3 Dimm LED";
1683   0070
1684   0020
1685   003d
1686   0020
1687   0033
1688   0020
1689   0044
168a   0069
168b   006d
168c   006d
168d   0020
168e   004c
168f   0045
1690   0044
1691   0000
1692   0000   dt "";
1693   0020   dt " e = selects a theme";
1694   0065
1695   0020
1696   003d
1697   0020
1698   0073
1699   0065
169a   006c
169b   0065
169c   0063
169d   0074
169e   0073
169f   0020
16a0   0061
16a1   0020
16a2   0074
16a3   0068
16a4   0065
16a5   006d
16a6   0065
16a7   0000
16a8   0020   dt " e = 0 Custom Theme";
16a9   0065
16aa   0020
16ab   003d
16ac   0020
16ad   0030
16ae   0020
16af   0043
16b0   0075
16b1   0073
16b2   0074
16b3   006f
16b4   006d
16b5   0020
16b6   0054
16b7   0068
16b8   0065
16b9   006d
16ba   0065
16bb   0000
16bc   0020   dt " e = 1,2 XMas";
16bd   0065
16be   0020
16bf   003d
16c0   0020
16c1   0031
16c2   002c
16c3   0032
16c4   0020
16c5   0058
16c6   004d
16c7   0061
16c8   0073
16c9   0000
16ca   0020   dt " e = 3,4,5,6 colorful1";
16cb   0065
16cc   0020
16cd   003d
16ce   0020
16cf   0033
16d0   002c
16d1   0034
16d2   002c
16d3   0035
16d4   002c
16d5   0036
16d6   0020
16d7   0063
16d8   006f
16d9   006c
16da   006f
16db   0072
16dc   0066
16dd   0075
16de   006c
16df   0031
16e0   0000
16e1   0020   dt " e = 7,8,9,a,b Flags";
16e2   0065
16e3   0020
16e4   003d
16e5   0020
16e6   0037
16e7   002c
16e8   0038
16e9   002c
16ea   0039
16eb   002c
16ec   0061
16ed   002c
16ee   0062
16ef   0020
16f0   0046
16f1   006c
16f2   0061
16f3   0067
16f4   0073
16f5   0000
16f6   0020   dt " ....7:USA,8:IRE,9:ARG,a:ENG,b:ITA,";
16f7   002e
16f8   002e
16f9   002e
16fa   002e
16fb   0037
16fc   003a
16fd   0055
16fe   0053
16ff   0041
1700   002c
1701   0038
1702   003a
1703   0049
1704   0052
1705   0045
1706   002c
1707   0039
1708   003a
1709   0041
170a   0052
170b   0047
170c   002c
170d   0061
170e   003a
170f   0045
1710   004e
1711   0047
1712   002c
1713   0062
1714   003a
1715   0049
1716   0054
1717   0041
1718   002c
1719   0000
171a   0000   dt "";
171b   0020   dt " s = selects color, enter GGBBRR in Hex";
171c   0073
171d   0020
171e   003d
171f   0020
1720   0073
1721   0065
1722   006c
1723   0065
1724   0063
1725   0074
1726   0073
1727   0020
1728   0063
1729   006f
172a   006c
172b   006f
172c   0072
172d   002c
172e   0020
172f   0065
1730   006e
1731   0074
1732   0065
1733   0072
1734   0020
1735   0047
1736   0047
1737   0042
1738   0042
1739   0052
173a   0052
173b   0020
173c   0069
173d   006e
173e   0020
173f   0048
1740   0065
1741   0078
1742   0000
1743   0020   dt " i = color intensity for solid colors <0-7>";
1744   0069
1745   0020
1746   003d
1747   0020
1748   0063
1749   006f
174a   006c
174b   006f
174c   0072
174d   0020
174e   0069
174f   006e
1750   0074
1751   0065
1752   006e
1753   0073
1754   0069
1755   0074
1756   0079
1757   0020
1758   0066
1759   006f
175a   0072
175b   0020
175c   0073
175d   006f
175e   006c
175f   0069
1760   0064
1761   0020
1762   0063
1763   006f
1764   006c
1765   006f
1766   0072
1767   0073
1768   0020
1769   003c
176a   0030
176b   002d
176c   0037
176d   003e
176e   0000
176f   0020   dt " m = Fill channel buffer mode";
1770   006d
1771   0020
1772   003d
1773   0020
1774   0046
1775   0069
1776   006c
1777   006c
1778   0020
1779   0063
177a   0068
177b   0061
177c   006e
177d   006e
177e   0065
177f   006c
1780   0020
1781   0062
1782   0075
1783   0066
1784   0066
1785   0065
1786   0072
1787   0020
1788   006d
1789   006f
178a   0064
178b   0065
178c   0000
178d   0020   dt " ....0:stretch, 1:repeat";
178e   002e
178f   002e
1790   002e
1791   002e
1792   0030
1793   003a
1794   0073
1795   0074
1796   0072
1797   0065
1798   0074
1799   0063
179a   0068
179b   002c
179c   0020
179d   0031
179e   003a
179f   0072
17a0   0065
17a1   0070
17a2   0065
17a3   0061
17a4   0074
17a5   0000
17a6   0020   dt " 8-9 = Update-Reset colorset counter/queue";
17a7   0038
17a8   002d
17a9   0039
17aa   0020
17ab   003d
17ac   0020
17ad   0055
17ae   0070
17af   0064
17b0   0061
17b1   0074
17b2   0065
17b3   002d
17b4   0052
17b5   0065
17b6   0073
17b7   0065
17b8   0074
17b9   0020
17ba   0063
17bb   006f
17bc   006c
17bd   006f
17be   0072
17bf   0073
17c0   0065
17c1   0074
17c2   0020
17c3   0063
17c4   006f
17c5   0075
17c6   006e
17c7   0074
17c8   0065
17c9   0072
17ca   002f
17cb   0071
17cc   0075
17cd   0065
17ce   0075
17cf   0065
17d0   0000
17d1   0020   dt " 0-7 = selects predefined colors";
17d2   0030
17d3   002d
17d4   0037
17d5   0020
17d6   003d
17d7   0020
17d8   0073
17d9   0065
17da   006c
17db   0065
17dc   0063
17dd   0074
17de   0073
17df   0020
17e0   0070
17e1   0072
17e2   0065
17e3   0064
17e4   0065
17e5   0066
17e6   0069
17e7   006e
17e8   0065
17e9   0064
17ea   0020
17eb   0063
17ec   006f
17ed   006c
17ee   006f
17ef   0072
17f0   0073
17f1   0000
17f2   002e   dt "..... 0:BLK 1:R 2:G 3:RG 4:B 5:RB 6:GB 7:WHT";
17f3   002e
17f4   002e
17f5   002e
17f6   002e
17f7   0020
17f8   0030
17f9   003a
17fa   0042
17fb   004c
17fc   004b
17fd   0020
17fe   0031
17ff   003a
1800   0052
1801   0020
1802   0032
1803   003a
1804   0047
1805   0020
1806   0033
1807   003a
1808   0052
1809   0047
180a   0020
180b   0034
180c   003a
180d   0042
180e   0020
180f   0035
1810   003a
1811   0052
1812   0042
1813   0020
1814   0036
1815   003a
1816   0047
1817   0042
1818   0020
1819   0037
181a   003a
181b   0057
181c   0048
181d   0054
181e   0000
181f   007c   dt "|||";
1820   007c
1821   007c
1822   0000
1823   0003   dw ETX;
1824   007c   help_m: dt "| H E L P |";
1825   0020
1826   0048
1827   0020
1828   0045
1829   0020
182a   004c
182b   0020
182c   0050
182d   0020
182e   007c
182f   0000
1830   007c   dt "| WG2811/12.asm (16K)|";
1831   0020
1832   0057
1833   0047
1834   0032
1835   0038
1836   0031
1837   0031
1838   002f
1839   0031
183a   0032
183b   002e
183c   0061
183d   0073
183e   006d
183f   0020
1840   0028
1841   0031
1842   0036
1843   004b
1844   0029
1845   007c
1846   0000
1847   0020   dt " Space key will refresh the screen";
1848   0053
1849   0070
184a   0061
184b   0063
184c   0065
184d   0020
184e   006b
184f   0065
1850   0079
1851   0020
1852   0077
1853   0069
1854   006c
1855   006c
1856   0020
1857   0072
1858   0065
1859   0066
185a   0072
185b   0065
185c   0073
185d   0068
185e   0020
185f   0074
1860   0068
1861   0065
1862   0020
1863   0073
1864   0063
1865   0072
1866   0065
1867   0065
1868   006e
1869   0000
186a   0020   dt " Enter x to exit (previous menu)";
186b   0045
186c   006e
186d   0074
186e   0065
186f   0072
1870   0020
1871   0078
1872   0020
1873   0074
1874   006f
1875   0020
1876   0065
1877   0078
1878   0069
1879   0074
187a   0020
187b   0028
187c   0070
187d   0072
187e   0065
187f   0076
1880   0069
1881   006f
1882   0075
1883   0073
1884   0020
1885   006d
1886   0065
1887   006e
1888   0075
1889   0029
188a   0000
188b   0020   dt " Enter values in HEXADECIMAL";
188c   0045
188d   006e
188e   0074
188f   0065
1890   0072
1891   0020
1892   0076
1893   0061
1894   006c
1895   0075
1896   0065
1897   0073
1898   0020
1899   0069
189a   006e
189b   0020
189c   0048
189d   0045
189e   0058
189f   0041
18a0   0044
18a1   0045
18a2   0043
18a3   0049
18a4   004d
18a5   0041
18a6   004c
18a7   0000
18a8   0000   dt "";
18a9   007c   dt "| Memory Commands |";
18aa   0020
18ab   004d
18ac   0065
18ad   006d
18ae   006f
18af   0072
18b0   0079
18b1   0020
18b2   0043
18b3   006f
18b4   006d
18b5   006d
18b6   0061
18b7   006e
18b8   0064
18b9   0073
18ba   0020
18bb   007c
18bc   0000
18bd   0020   dt " A = Memory access (toggle)";
18be   0041
18bf   0020
18c0   003d
18c1   0020
18c2   004d
18c3   0065
18c4   006d
18c5   006f
18c6   0072
18c7   0079
18c8   0020
18c9   0061
18ca   0063
18cb   0063
18cc   0065
18cd   0073
18ce   0073
18cf   0020
18d0   0028
18d1   0074
18d2   006f
18d3   0067
18d4   0067
18d5   006c
18d6   0065
18d7   0029
18d8   0000
18d9   0020   dt " B = Memory byte mode (toggle)";
18da   0042
18db   0020
18dc   003d
18dd   0020
18de   004d
18df   0065
18e0   006d
18e1   006f
18e2   0072
18e3   0079
18e4   0020
18e5   0062
18e6   0079
18e7   0074
18e8   0065
18e9   0020
18ea   006d
18eb   006f
18ec   0064
18ed   0065
18ee   0020
18ef   0028
18f0   0074
18f1   006f
18f2   0067
18f3   0067
18f4   006c
18f5   0065
18f6   0029
18f7   0000
18f8   0020   dt " m = Memory read/write: (MEM ADDR)";
18f9   006d
18fa   0020
18fb   003d
18fc   0020
18fd   004d
18fe   0065
18ff   006d
1900   006f
1901   0072
1902   0079
1903   0020
1904   0072
1905   0065
1906   0061
1907   0064
1908   002f
1909   0077
190a   0072
190b   0069
190c   0074
190d   0065
190e   003a
190f   0020
1910   0028
1911   004d
1912   0045
1913   004d
1914   0020
1915   0041
1916   0044
1917   0044
1918   0052
1919   0029
191a   0000
191b   0020   dt " ___ [m]addr[RET] read and set address" ;
191c   005f
191d   005f
191e   005f
191f   0020
1920   005b
1921   006d
1922   005d
1923   0061
1924   0064
1925   0064
1926   0072
1927   005b
1928   0052
1929   0045
192a   0054
192b   005d
192c   0020
192d   0072
192e   0065
192f   0061
1930   0064
1931   0020
1932   0061
1933   006e
1934   0064
1935   0020
1936   0073
1937   0065
1938   0074
1939   0020
193a   0061
193b   0064
193c   0064
193d   0072
193e   0065
193f   0073
1940   0073
1941   0000
1942   0020   dt " ___ [m]addr,val[RET] write value" ;
1943   005f
1944   005f
1945   005f
1946   0020
1947   005b
1948   006d
1949   005d
194a   0061
194b   0064
194c   0064
194d   0072
194e   002c
194f   0076
1950   0061
1951   006c
1952   005b
1953   0052
1954   0045
1955   0054
1956   005d
1957   0020
1958   0077
1959   0072
195a   0069
195b   0074
195c   0065
195d   0020
195e   0076
195f   0061
1960   006c
1961   0075
1962   0065
1963   0000
1964   0020   dt " d = dump memory from address 0";
1965   0064
1966   0020
1967   003d
1968   0020
1969   0064
196a   0075
196b   006d
196c   0070
196d   0020
196e   006d
196f   0065
1970   006d
1971   006f
1972   0072
1973   0079
1974   0020
1975   0066
1976   0072
1977   006f
1978   006d
1979   0020
197a   0061
197b   0064
197c   0064
197d   0072
197e   0065
197f   0073
1980   0073
1981   0020
1982   0030
1983   0000
1984   0020   dt " n = next 256 memory from last address";
1985   006e
1986   0020
1987   003d
1988   0020
1989   006e
198a   0065
198b   0078
198c   0074
198d   0020
198e   0032
198f   0035
1990   0036
1991   0020
1992   006d
1993   0065
1994   006d
1995   006f
1996   0072
1997   0079
1998   0020
1999   0066
199a   0072
199b   006f
199c   006d
199d   0020
199e   006c
199f   0061
19a0   0073
19a1   0074
19a2   0020
19a3   0061
19a4   0064
19a5   0064
19a6   0072
19a7   0065
19a8   0073
19a9   0073
19aa   0000
19ab   0020   dt " f = fill memory with value + increment";
19ac   0066
19ad   0020
19ae   003d
19af   0020
19b0   0066
19b1   0069
19b2   006c
19b3   006c
19b4   0020
19b5   006d
19b6   0065
19b7   006d
19b8   006f
19b9   0072
19ba   0079
19bb   0020
19bc   0077
19bd   0069
19be   0074
19bf   0068
19c0   0020
19c1   0076
19c2   0061
19c3   006c
19c4   0075
19c5   0065
19c6   0020
19c7   002b
19c8   0020
19c9   0069
19ca   006e
19cb   0063
19cc   0072
19cd   0065
19ce   006d
19cf   0065
19d0   006e
19d1   0074
19d2   0000
19d3   0020   dt " ___ addr,value = aaaa,vvvv (comma or space)";
19d4   005f
19d5   005f
19d6   005f
19d7   0020
19d8   0061
19d9   0064
19da   0064
19db   0072
19dc   002c
19dd   0076
19de   0061
19df   006c
19e0   0075
19e1   0065
19e2   0020
19e3   003d
19e4   0020
19e5   0061
19e6   0061
19e7   0061
19e8   0061
19e9   002c
19ea   0076
19eb   0076
19ec   0076
19ed   0076
19ee   0020
19ef   0028
19f0   0063
19f1   006f
19f2   006d
19f3   006d
19f4   0061
19f5   0020
19f6   006f
19f7   0072
19f8   0020
19f9   0073
19fa   0070
19fb   0061
19fc   0063
19fd   0065
19fe   0029
19ff   0000
1a00   0020   dt " l = memory length and increment";
1a01   006c
1a02   0020
1a03   003d
1a04   0020
1a05   006d
1a06   0065
1a07   006d
1a08   006f
1a09   0072
1a0a   0079
1a0b   0020
1a0c   006c
1a0d   0065
1a0e   006e
1a0f   0067
1a10   0074
1a11   0068
1a12   0020
1a13   0061
1a14   006e
1a15   0064
1a16   0020
1a17   0069
1a18   006e
1a19   0063
1a1a   0072
1a1b   0065
1a1c   006d
1a1d   0065
1a1e   006e
1a1f   0074
1a20   0000
1a21   0020   dt " ___ length,increment = llll,iiii (comma or space)";
1a22   005f
1a23   005f
1a24   005f
1a25   0020
1a26   006c
1a27   0065
1a28   006e
1a29   0067
1a2a   0074
1a2b   0068
1a2c   002c
1a2d   0069
1a2e   006e
1a2f   0063
1a30   0072
1a31   0065
1a32   006d
1a33   0065
1a34   006e
1a35   0074
1a36   0020
1a37   003d
1a38   0020
1a39   006c
1a3a   006c
1a3b   006c
1a3c   006c
1a3d   002c
1a3e   0069
1a3f   0069
1a40   0069
1a41   0069
1a42   0020
1a43   0028
1a44   0063
1a45   006f
1a46   006d
1a47   006d
1a48   0061
1a49   0020
1a4a   006f
1a4b   0072
1a4c   0020
1a4d   0073
1a4e   0070
1a4f   0061
1a50   0063
1a51   0065
1a52   0029
1a53   0000
1a54   0020   dt " ___ aaaa,vvvv,llll,iiii mandatory 4 digits";
1a55   005f
1a56   005f
1a57   005f
1a58   0020
1a59   0061
1a5a   0061
1a5b   0061
1a5c   0061
1a5d   002c
1a5e   0076
1a5f   0076
1a60   0076
1a61   0076
1a62   002c
1a63   006c
1a64   006c
1a65   006c
1a66   006c
1a67   002c
1a68   0069
1a69   0069
1a6a   0069
1a6b   0069
1a6c   0020
1a6d   006d
1a6e   0061
1a6f   006e
1a70   0064
1a71   0061
1a72   0074
1a73   006f
1a74   0072
1a75   0079
1a76   0020
1a77   0034
1a78   0020
1a79   0064
1a7a   0069
1a7b   0067
1a7c   0069
1a7d   0074
1a7e   0073
1a7f   0000
1a80   0000   dt "";
1a81   007c   dt "| Register Commands |";
1a82   0020
1a83   0052
1a84   0065
1a85   0067
1a86   0069
1a87   0073
1a88   0074
1a89   0065
1a8a   0072
1a8b   0020
1a8c   0043
1a8d   006f
1a8e   006d
1a8f   006d
1a90   0061
1a91   006e
1a92   0064
1a93   0073
1a94   0020
1a95   007c
1a96   0000
1a97   0020   dt " w = Write Output Port/Register: (full address)";
1a98   0077
1a99   0020
1a9a   003d
1a9b   0020
1a9c   0057
1a9d   0072
1a9e   0069
1a9f   0074
1aa0   0065
1aa1   0020
1aa2   004f
1aa3   0075
1aa4   0074
1aa5   0070
1aa6   0075
1aa7   0074
1aa8   0020
1aa9   0050
1aaa   006f
1aab   0072
1aac   0074
1aad   002f
1aae   0052
1aaf   0065
1ab0   0067
1ab1   0069
1ab2   0073
1ab3   0074
1ab4   0065
1ab5   0072
1ab6   003a
1ab7   0020
1ab8   0028
1ab9   0066
1aba   0075
1abb   006c
1abc   006c
1abd   0020
1abe   0061
1abf   0064
1ac0   0064
1ac1   0072
1ac2   0065
1ac3   0073
1ac4   0073
1ac5   0029
1ac6   0000
1ac7   0020   dt " ___ [w]addr[RET] read port";
1ac8   005f
1ac9   005f
1aca   005f
1acb   0020
1acc   005b
1acd   0077
1ace   005d
1acf   0061
1ad0   0064
1ad1   0064
1ad2   0072
1ad3   005b
1ad4   0052
1ad5   0045
1ad6   0054
1ad7   005d
1ad8   0020
1ad9   0072
1ada   0065
1adb   0061
1adc   0064
1add   0020
1ade   0070
1adf   006f
1ae0   0072
1ae1   0074
1ae2   0000
1ae3   0020   dt " ___ [w]addr,val[RET] delimeter comma";
1ae4   005f
1ae5   005f
1ae6   005f
1ae7   0020
1ae8   005b
1ae9   0077
1aea   005d
1aeb   0061
1aec   0064
1aed   0064
1aee   0072
1aef   002c
1af0   0076
1af1   0061
1af2   006c
1af3   005b
1af4   0052
1af5   0045
1af6   0054
1af7   005d
1af8   0020
1af9   0064
1afa   0065
1afb   006c
1afc   0069
1afd   006d
1afe   0065
1aff   0074
1b00   0065
1b01   0072
1b02   0020
1b03   0063
1b04   006f
1b05   006d
1b06   006d
1b07   0061
1b08   0000
1b09   0020   dt " ___ [w]addr val[RET] delimiter space";
1b0a   005f
1b0b   005f
1b0c   005f
1b0d   0020
1b0e   005b
1b0f   0077
1b10   005d
1b11   0061
1b12   0064
1b13   0064
1b14   0072
1b15   0020
1b16   0076
1b17   0061
1b18   006c
1b19   005b
1b1a   0052
1b1b   0045
1b1c   0054
1b1d   005d
1b1e   0020
1b1f   0064
1b20   0065
1b21   006c
1b22   0069
1b23   006d
1b24   0069
1b25   0074
1b26   0065
1b27   0072
1b28   0020
1b29   0073
1b2a   0070
1b2b   0061
1b2c   0063
1b2d   0065
1b2e   0000
1b2f   0020   dt " ___ [w]addr'n'val[RET] one's complement";
1b30   005f
1b31   005f
1b32   005f
1b33   0020
1b34   005b
1b35   0077
1b36   005d
1b37   0061
1b38   0064
1b39   0064
1b3a   0072
1b3b   0027
1b3c   006e
1b3d   0027
1b3e   0076
1b3f   0061
1b40   006c
1b41   005b
1b42   0052
1b43   0045
1b44   0054
1b45   005d
1b46   0020
1b47   006f
1b48   006e
1b49   0065
1b4a   0027
1b4b   0073
1b4c   0020
1b4d   0063
1b4e   006f
1b4f   006d
1b50   0070
1b51   006c
1b52   0065
1b53   006d
1b54   0065
1b55   006e
1b56   0074
1b57   0000
1b58   0020   dt " ___ [w]addr'-'val[RET] two's complement";
1b59   005f
1b5a   005f
1b5b   005f
1b5c   0020
1b5d   005b
1b5e   0077
1b5f   005d
1b60   0061
1b61   0064
1b62   0064
1b63   0072
1b64   0027
1b65   002d
1b66   0027
1b67   0076
1b68   0061
1b69   006c
1b6a   005b
1b6b   0052
1b6c   0045
1b6d   0054
1b6e   005d
1b6f   0020
1b70   0074
1b71   0077
1b72   006f
1b73   0027
1b74   0073
1b75   0020
1b76   0063
1b77   006f
1b78   006d
1b79   0070
1b7a   006c
1b7b   0065
1b7c   006d
1b7d   0065
1b7e   006e
1b7f   0074
1b80   0000
1b81   0000   dt "";
1b82   005b   dt "[s/c/t/i]regaddr,bit[RET] (bit=0 to F)";
1b83   0073
1b84   002f
1b85   0063
1b86   002f
1b87   0074
1b88   002f
1b89   0069
1b8a   005d
1b8b   0072
1b8c   0065
1b8d   0067
1b8e   0061
1b8f   0064
1b90   0064
1b91   0072
1b92   002c
1b93   0062
1b94   0069
1b95   0074
1b96   005b
1b97   0052
1b98   0045
1b99   0054
1b9a   005d
1b9b   0020
1b9c   0028
1b9d   0062
1b9e   0069
1b9f   0074
1ba0   003d
1ba1   0030
1ba2   0020
1ba3   0074
1ba4   006f
1ba5   0020
1ba6   0046
1ba7   0029
1ba8   0000
1ba9   005b   dt "[a/o/e] regaddr,mask[RET]";
1baa   0061
1bab   002f
1bac   006f
1bad   002f
1bae   0065
1baf   005d
1bb0   0020
1bb1   0072
1bb2   0065
1bb3   0067
1bb4   0061
1bb5   0064
1bb6   0064
1bb7   0072
1bb8   002c
1bb9   006d
1bba   0061
1bbb   0073
1bbc   006b
1bbd   005b
1bbe   0052
1bbf   0045
1bc0   0054
1bc1   005d
1bc2   0000
1bc3   0000   dt "";
1bc4   0020   dt " b = set register Base address";
1bc5   0062
1bc6   0020
1bc7   003d
1bc8   0020
1bc9   0073
1bca   0065
1bcb   0074
1bcc   0020
1bcd   0072
1bce   0065
1bcf   0067
1bd0   0069
1bd1   0073
1bd2   0074
1bd3   0065
1bd4   0072
1bd5   0020
1bd6   0042
1bd7   0061
1bd8   0073
1bd9   0065
1bda   0020
1bdb   0061
1bdc   0064
1bdd   0064
1bde   0072
1bdf   0065
1be0   0073
1be1   0073
1be2   0000
1be3   0020   dt " r = Read 16 Registers(BASE ADDR + 0 to F)";
1be4   0072
1be5   0020
1be6   003d
1be7   0020
1be8   0052
1be9   0065
1bea   0061
1beb   0064
1bec   0020
1bed   0031
1bee   0036
1bef   0020
1bf0   0052
1bf1   0065
1bf2   0067
1bf3   0069
1bf4   0073
1bf5   0074
1bf6   0065
1bf7   0072
1bf8   0073
1bf9   0028
1bfa   0042
1bfb   0041
1bfc   0053
1bfd   0045
1bfe   0020
1bff   0041
1c00   0044
1c01   0044
1c02   0052
1c03   0020
1c04   002b
1c05   0020
1c06   0030
1c07   0020
1c08   0074
1c09   006f
1c0a   0020
1c0b   0046
1c0c   0029
1c0d   0000
1c0e   007c   dt "|||";
1c0f   007c
1c10   007c
1c11   0000
1c12   0003   dw ETX;
1c13   078c   the_table: dw theme0 ; 
1c14   07d4   dw t_xmas ; 
1c15   07fb   dw t_xmas2 ; 
1c16   0884   dw t_colorful1 ; 
1c17   08a4   dw t_colorful2 ; 
1c18   08c4   dw t_colorful3 ; 
1c19   0874   dw t_halloween ; 
1c1a   0906   dw t_liverpool ; 
1c1b   090e   dw t_nycfc ; 
1c1c   08e4   dw t_saintpatrick ; 
1c1d   0818   dw t_usaflag ; 
1c1e   0828   dw t_ireflag ; 
1c1f   0844   dw t_argflag ; 
1c20   0854   dw t_engflag ; 
1c21   0864   dw t_itaflag ; 
1c22   0930   dw themef ;
1c23   0932   pat_table: dw pattern0 ; 
1c24   0936   dw p_blink ; 
1c25   0946   dw p_walk ; 
1c26   096e   dw p_dimm ; 
1c27   0990   dw pattern4 ;
1c28   0990   dw pattern5 ;
1c29   0990   dw pattern6 ; 
1c2a   0990   dw pattern7 ; 
1c2b   0990   dw pattern8 ;
1c2c   0990   dw pattern9 ;
1c2d   0990   dw patterna ;
1c2e   0990   dw patternb ;
1c2f   0990   dw patternc ;
1c30   0990   dw patternd ;
1c31   0990   dw patterne ;
1c32   0990   dw patternf ;
1c33   0101   dw 'h0101 ;
1c34   0303   dw 'h0303 ;
1c35   0707   dw 'h0707 ;
1c36   0f0f   dw 'h0F0F ;
1c37   1f1f   dw 'h1F1F ;
1c38   3f3f   dw 'h3F3F ;
1c39   7f7f   dw 'h7F7F ;
1c3a   ffff   dw 'hFFFF ;
1c3b   1c3b   dw zend_code;
1c3c   0000   memptr: dw 0 ; 
1c3d   0000   memptrlast: dw 0 ; 
1c3e   0000   hex1val: dw 0 ; 
1c3f   0000   hex2val: dw 0 ; 
1c40   0000   cvalue1: dw 0 ; 
1c41   0000   cvalue2: dw 0 ; 
1c42   0000   inpchar: dw 0 ; 
1c43   0000   inpaddr: dw 0 ; 
1c44   0000   outdata: dw 0 ; 
1c45   0000   uartstat: dw 0 ; 
1c46   0077   bitop: dw "w" ;
1c47   0000   delimeter: dw 0 ;
1c48   0000   temp0: dw 0 ; 
1c49   0000   regptr: dw BASEREGIO ; 
1c4a   0000   echomode: dw 0 ; 
1c4b   0000   tmr1msec: dw 0 ; 
1c4c   0064   tmr1value: dw 100 ; 
1c4d   0000   walk_cnt: dw 0 ;
1c4e   0000   walk_on: dw 0 ; 
1c4f   0000   pcounter1: dw 0 ; 
1c50   0000   pselect1: dw 0 ; 
1c51   0001   pselect1e: dw 1 ; 
1c52   0001   irqmask: dw 1 ; 
1c53   0000   dimcnt: dw 0 ;
1c54   0000   dimflg: dw 0 ;
1c55   0c2f   ssm_pst: dw kpst00 ; 
1c56   0c2f   ssm_lst: dw kpst00 ; 
1c57   0005   rgbtab: dw 'h0005,'h0000,'h0000,'h0005; 
1c58   0000
1c59   0000
1c5a   0005
1c5b   0500   dw 'h0500,'h0000,'h0500,'h0505; 
1c5c   0000
1c5d   0500
1c5e   0505
1c5f   0005   dw 'h0005,'h0000,'h0000,'h0005; 
1c60   0000
1c61   0000
1c62   0005
1c63   0500   dw 'h0500,'h0000,'h0500,'h0505; 
1c64   0000
1c65   0500
1c66   0505
1c67   0001   rgbtab8: dw 'h0001,'h0000,'h0000,'h0002; 
1c68   0000
1c69   0000
1c6a   0002
1c6b   0000   dw 'h0000,'h0000,'h0000,'h0000; 
1c6c   0000
1c6d   0000
1c6e   0000
1c6f   0000   dw 'h0000,'h0000,'h0000,'h0000; 
1c70   0000
1c71   0000
1c72   0000
1c73   0000   dw 'h0000,'h0000,'h0000,'h0000; 
1c74   0000
1c75   0000
1c76   0000
1c77   0100   rgbtab_bg: dw 'h0100,'h0000,'h0100,'h0000; 
1c78   0000
1c79   0100
1c7a   0000
1c7b   0100   dw 'h0100,'h0101,'h0100,'h0101; 
1c7c   0101
1c7d   0100
1c7e   0101
1c7f   0100   dw 'h0100,'h0000,'h0100,'h0000; 
1c80   0000
1c81   0100
1c82   0000
1c83   0100   dw 'h0100,'h0101,'h0100,'h0101; 
1c84   0101
1c85   0100
1c86   0101
1c87   0100   rgbtab_bg8: dw 'h0100,'h0000,'h0200,'h0000; 
1c88   0000
1c89   0200
1c8a   0000
1c8b   0000   dw 'h0000,'h0000,'h0000,'h0000; 
1c8c   0000
1c8d   0000
1c8e   0000
1c8f   0000   dw 'h0000,'h0000,'h0000,'h0000; 
1c90   0000
1c91   0000
1c92   0000
1c93   0000   dw 'h0000,'h0000,'h0000,'h0000; 
1c94   0000
1c95   0000
1c96   0000
1c97   1c13   varchk: dw the_table ; 
1c98   1c23   dw pat_table ; 
1c99   1c57   dw rgbtab ; 
1c9a   1c77   dw rgbtab_bg ; 
1c9b   1c9f   dw buf_table ; 
1c9c   1c4b   dw tmr1msec ; 
1c9d   1cdf   dw colorset ; 
1c9e   0064   numpixels: dw STRIPLENGTH ;
1c9f   1da7   buf_table: dw pbuffer1;
1ca0   1e6f   dw pbuffer2;
1ca1   1f37   dw pbuffer3;
1ca2   1fff   dw pbuffer4;
1ca3   20c7   dw pbuffer5;
1ca4   218f   dw pbuffer6;
1ca5   2257   dw pbuffer7;
1ca6   231f   dw pbuffer8;
1ca7   23e7   dw pbuffer9;
1ca8   24af   dw pbuffer10;
1ca9   2577   dw pbuffer11;
1caa   263f   dw pbuffer12;
1cab   2707   dw pbuffer13;
1cac   27cf   dw pbuffer14;
1cad   2897   dw pbuffer15;
1cae   295f   dw pbuffer16;
1cb7   0000   colorcnt: dw 0 ; 
1cb8   0000   colorseg: dw 0 ; 
1cb9   0000   residual: dw 0 ; 
1cba   0000   ready2go: dw 0 ; 
1cbb   0000   channel: dw 0 ; 
1cbc   ffff   intensity: dw 'hFFFF ; 
1cbd   0000   colorsetrg: dw 0 ;
1cbe   0000   colorsetwb: dw 0 ;
1cbf   0000   buff_addr: dw 0 ;
1cc0   0000   buff_addrx: dw 0 ;
1cc1   0000   buff_value: dw 0 ;
1cc2   0000   buff_len: dw 0 ;
1cc3   0000   buff_inc: dw 0 ;
1cc4   8000   buff_idx: dw SIGNED ; 
1cc5   0001   pixelson: dw 1 ; 
1cc6   0001   dimsteps: dw 1 ;
1cc7   ffff   colormskrg: dw 'hFFFF ;
1cc8   00ff   colormskwb: dw 'h00FF ;
1cc9   0000   memode: dw 0 ; 
1cca   0000   memacc: dw 0 ; 
1ccb   0000   memop: dw 0 ; 
1ccc   0000   poffset: dw 0 ; 
1ccd   0000   buff_mode: dw 0 ; 
1cce   1c13   tjump: dw the_table ; 
1ccf   07e6   tmr1year: dw YEAR ; 
1cd0   0004   tmr1month: dw MONTH ; 
1cd1   0069   tmr1date: dw DATE ; 
1cd2   000a   tmr1hour: dw HOUR ; 
1cd3   0019   tmr1min: dw MINUTE ; 
1cd4   0000   tmr1sec: dw SECONDS ; 
1cd5   0000   read_mode: dw 0 ; 
1cd6   1c23   pjump: dw pat_table ; 
2a67   0039   exe_v: jmp exe_v ; 
2a68   2a67
3f00   0046   cli ; 
3f01   0000   nop ; 
3f02   043f   uport f4 ; 
3f03   073f   boot_p: uport f7 ; 
3f04   0121   ldrv r1,"<" ; 
3f05   003c
3f06   1a35   outpp r1,pA,0 ; 
3f07   0000
3f08   b133   boot_ch: inpp r1,pB ; 
3f09   010b   andv r1,RXDVLD ; 
3f0a   0080
3f0b   1037   bra z,boot_ch ; 
3f0c   fffc
3f0d   a133   inpp r1,pA ; 
3f0e   010b   andv r1,'h0FF ; 
3f0f   00ff
3f10   1113   cmprv r1,"#" ; 
3f11   0023
3f12   1037   bra e,boot_fh ; 
3f13   0007
3f14   1113   cmprv r1,ESC ; 
3f15   001b
3f16   9037   bra ne,boot_ch ; 
3f17   fff1
3f18   0039   jmp end_boot ; 
3f19   3f55
3f1a   073e   boot_fh: uflag f7 ; 
3f1b   873f   uport t7 ; 
3f1c   012e   boot_p0: ldpv p1,0 ;
3f1d   0000
3f1e   021f   boot_p1: ldcv c2,3 ;
3f1f   0003
3f20   220e   xor r2,r2 ; 
3f21   0217   boot_p2: shl4 r2 ;
3f22   b133   boot_p3: inpp r1,pB ; 
3f23   010b   andv r1,RXDVLD ; 
3f24   0080
3f25   1037   bra z,boot_p3 ; 
3f26   fffc
3f27   a133   inpp r1,pA ; 
3f28   010b   andv r1,'h0FF ; 
3f29   00ff
3f2a   0107   subv r1,'h030 ; 
3f2b   0030
3f2c   3037   bra s,boot_p3 ; 
3f2d   fff5
3f2e   1113   cmprv r1,9 ;
3f2f   0009
3f30   f037   bra ls,boot_p4 ;
3f31   0005
3f32   010b   andv r1,'h00F ; 
3f33   000f
3f34   0103   addv r1,9 ;
3f35   0009
3f36   120c   boot_p4: or r2,r1 ;
3f37   0238   dcjnz c2,boot_p2 ;
3f38   3f21
3f39   0000   nop ; 
3f3a   8739   jmp t7,boot_p4b ; 
3f3b   3f42
3f3c   2a19   mvrr r2,ra ; 
3f3d   a028   str ra,prog_lng ; 
3f3e   3f8e
3f3f   873e   uflag t7 ; 
3f40   0037   bra boot_p0 ;
3f41   ffdb
3f42   111b   boot_p4b:mvpr p1,r1 ; 
3f43   1113   cmprv r1,boot_p ;
3f44   3f03
3f45   a037   bra hs,boot_p5 ;
3f46   0004
3f47   212b   strpi r2,p1 ; 
3f48   0037   bra boot_p6 ;
3f49   0005
3f4a   0021   boot_p5: ldrv r0,"*" ;
3f4b   002a
3f4c   0037   bra boot_p7 ;
3f4d   0003
3f4e   0021   boot_p6: ldrv r0,"." ;
3f4f   002e
3f50   0a35   boot_p7: outpp r0,pA,0 ;
3f51   0000
3f52   0a11   dec ra ;
3f53   9037   bra nz,boot_p1 ;
3f54   ffca
3f55   102f   end_boot:stp p1,prog_cnt ;
3f56   3f8f
3f57   0021   ldrv r0,"#" ;
3f58   0023
3f59   0a35   outpp r0,pA,0 ;
3f5a   0000
3f5b   0121   end_loop:ldrv r1,0 ; 
3f5c   0000
3f5d   073f   uport f7 ; 
3f5e   0039   jmp reset_v ;
3f5f   0000
3f60   0c20   boot_r: ldr rc,prog_lng ;
3f61   3f8e
3f62   012e   ldpv p1,0 ;
3f63   0000
3f64   021f   boot_r1: ldcv c2,3 ;
3f65   0003
3f66   1224   ldrpi r2,p1 ;
3f67   3215   boot_r2: shl r,r2 ;
3f68   3215   shl r,r2 ;
3f69   3215   shl r,r2 ;
3f6a   3215   shl r,r2 ;
3f6b   2119   mvrr r2,r1 ;
3f6c   010b   andv r1,'h00F ;
3f6d   000f
3f6e   0103   addv r1,'h030 ;
3f6f   0030
3f70   1113   cmprv r1,'h039 ;
3f71   0039
3f72   f037   bra ls,boot_r3 ;
3f73   0003
3f74   0103   addv r1,'h027 ;
3f75   0027
3f76   b333   boot_r3: inpp r3,pB ; 
3f77   030b   andv r3,TXFULL ; 
3f78   0040
3f79   9037   bra nz,boot_r3 ; 
3f7a   fffc
3f7b   1a35   outpp r1,pA,0 ;
3f7c   0000
3f7d   0238   dcjnz c2,boot_r2 ;
3f7e   3f67
3f7f   0000   nop ; 
3f80   b333   boot_r4: inpp r3,pB ; 
3f81   030b   andv r3,TXFULL ; 
3f82   0040
3f83   9037   bra nz,boot_r4 ; 
3f84   fffc
3f85   0321   ldrv r3,'h00A ;
3f86   000a
3f87   3a35   outpp r3,pA,0 ;
3f88   0000
3f89   0c11   dec rc ; 
3f8a   9037   bra nz,boot_r1 ;
3f8b   ffd9
3f8c   0039   jmp end_loop ;
3f8d   3f5b
3f8e   0000   prog_lng:dw 0 ; 
3f8f   0000   prog_cnt:dw 0 ; 